ARM GAS  /var/folders/1p/hl98tgf51p19ck4ldyh6xb6c0000gn/T//ccZqo17l.s 			page 1


   1              		.cpu cortex-m7
   2              		.arch armv7e-m
   3              		.fpu fpv5-d16
   4              		.eabi_attribute 28, 1
   5              		.eabi_attribute 20, 1
   6              		.eabi_attribute 21, 1
   7              		.eabi_attribute 23, 3
   8              		.eabi_attribute 24, 1
   9              		.eabi_attribute 25, 1
  10              		.eabi_attribute 26, 1
  11              		.eabi_attribute 30, 2
  12              		.eabi_attribute 34, 1
  13              		.eabi_attribute 18, 4
  14              		.file	"source.cpp"
  15              		.text
  16              	.Ltext0:
  17              		.cfi_sections	.debug_frame
  18              		.section	.text._ZN5daisy9DaisySeedD2Ev,"axG",%progbits,_ZN5daisy9DaisySeedD5Ev,comdat
  19              		.align	1
  20              		.p2align 2,,3
  21              		.weak	_ZN5daisy9DaisySeedD2Ev
  22              		.syntax unified
  23              		.thumb
  24              		.thumb_func
  26              	_ZN5daisy9DaisySeedD2Ev:
  27              	.LVL0:
  28              	.LFB2529:
  29              		.file 1 "../DaisyExamples/libDaisy//src/daisy_seed.h"
   1:../DaisyExamples/libDaisy//src/daisy_seed.h **** #pragma once
   2:../DaisyExamples/libDaisy//src/daisy_seed.h **** #ifndef DSY_SEED_H
   3:../DaisyExamples/libDaisy//src/daisy_seed.h **** #define DSY_SEED_H
   4:../DaisyExamples/libDaisy//src/daisy_seed.h **** 
   5:../DaisyExamples/libDaisy//src/daisy_seed.h **** #include "daisy.h"
   6:../DaisyExamples/libDaisy//src/daisy_seed.h **** 
   7:../DaisyExamples/libDaisy//src/daisy_seed.h **** //Uncomment this out if you're still using the rev2 hardware
   8:../DaisyExamples/libDaisy//src/daisy_seed.h **** //#define SEED_REV2
   9:../DaisyExamples/libDaisy//src/daisy_seed.h **** 
  10:../DaisyExamples/libDaisy//src/daisy_seed.h **** namespace daisy
  11:../DaisyExamples/libDaisy//src/daisy_seed.h **** {
  12:../DaisyExamples/libDaisy//src/daisy_seed.h **** /**
  13:../DaisyExamples/libDaisy//src/daisy_seed.h ****    @brief This is the higher-level interface for the Daisy board. \n 
  14:../DaisyExamples/libDaisy//src/daisy_seed.h ****     All basic peripheral configuration/initialization is setup here. \n
  15:../DaisyExamples/libDaisy//src/daisy_seed.h **** 
  16:../DaisyExamples/libDaisy//src/daisy_seed.h ****    @ingroup boards
  17:../DaisyExamples/libDaisy//src/daisy_seed.h **** */
  18:../DaisyExamples/libDaisy//src/daisy_seed.h **** class DaisySeed
  19:../DaisyExamples/libDaisy//src/daisy_seed.h **** {
  20:../DaisyExamples/libDaisy//src/daisy_seed.h ****   public:
  21:../DaisyExamples/libDaisy//src/daisy_seed.h ****     DaisySeed() {}
  22:../DaisyExamples/libDaisy//src/daisy_seed.h ****     ~DaisySeed() {}
  30              		.loc 1 22 5 view -0
  31              		.cfi_startproc
  32              		@ args = 0, pretend = 0, frame = 0
  33              		@ frame_needed = 0, uses_anonymous_args = 0
  34              		@ link register save eliminated.
  35              	.LBB366:
  36              	.LBI366:
ARM GAS  /var/folders/1p/hl98tgf51p19ck4ldyh6xb6c0000gn/T//ccZqo17l.s 			page 2


  37              		.file 2 "../DaisyExamples/libDaisy//src/sys/system.h"
   1:../DaisyExamples/libDaisy//src/sys/system.h **** #ifndef DSY_SYSTEM_H
   2:../DaisyExamples/libDaisy//src/sys/system.h **** #define DSY_SYSTEM_H
   3:../DaisyExamples/libDaisy//src/sys/system.h **** 
   4:../DaisyExamples/libDaisy//src/sys/system.h **** #ifndef UNIT_TEST // for unit tests, a dummy implementation is provided below
   5:../DaisyExamples/libDaisy//src/sys/system.h **** 
   6:../DaisyExamples/libDaisy//src/sys/system.h **** #include <cstdint>
   7:../DaisyExamples/libDaisy//src/sys/system.h **** #include "per/tim.h"
   8:../DaisyExamples/libDaisy//src/sys/system.h **** 
   9:../DaisyExamples/libDaisy//src/sys/system.h **** namespace daisy
  10:../DaisyExamples/libDaisy//src/sys/system.h **** {
  11:../DaisyExamples/libDaisy//src/sys/system.h **** /** A handle for interacting with the Core System. 
  12:../DaisyExamples/libDaisy//src/sys/system.h ****  ** This includes the Clock tree, MPU, global DMA initialization,
  13:../DaisyExamples/libDaisy//src/sys/system.h ****  ** cache handling, and any other necessary global initiailzation
  14:../DaisyExamples/libDaisy//src/sys/system.h ****  **
  15:../DaisyExamples/libDaisy//src/sys/system.h ****  ** @author shensley
  16:../DaisyExamples/libDaisy//src/sys/system.h ****  ** @ingroup system
  17:../DaisyExamples/libDaisy//src/sys/system.h ****  */
  18:../DaisyExamples/libDaisy//src/sys/system.h **** class System
  19:../DaisyExamples/libDaisy//src/sys/system.h **** {
  20:../DaisyExamples/libDaisy//src/sys/system.h ****   public:
  21:../DaisyExamples/libDaisy//src/sys/system.h ****     /** Contains settings for initializing the System */
  22:../DaisyExamples/libDaisy//src/sys/system.h ****     struct Config
  23:../DaisyExamples/libDaisy//src/sys/system.h ****     {
  24:../DaisyExamples/libDaisy//src/sys/system.h ****         /** Specifies the system clock frequency that feeds APB/AHB clocks, etc. */
  25:../DaisyExamples/libDaisy//src/sys/system.h ****         enum class SysClkFreq
  26:../DaisyExamples/libDaisy//src/sys/system.h ****         {
  27:../DaisyExamples/libDaisy//src/sys/system.h ****             FREQ_400MHZ,
  28:../DaisyExamples/libDaisy//src/sys/system.h ****             FREQ_480MHZ,
  29:../DaisyExamples/libDaisy//src/sys/system.h ****         };
  30:../DaisyExamples/libDaisy//src/sys/system.h **** 
  31:../DaisyExamples/libDaisy//src/sys/system.h ****         /** Method to call on the struct to set to defaults
  32:../DaisyExamples/libDaisy//src/sys/system.h ****          ** CPU Freq set to 400MHz
  33:../DaisyExamples/libDaisy//src/sys/system.h ****          ** Cache Enabled 
  34:../DaisyExamples/libDaisy//src/sys/system.h ****          ** */
  35:../DaisyExamples/libDaisy//src/sys/system.h ****         void Defaults()
  36:../DaisyExamples/libDaisy//src/sys/system.h ****         {
  37:../DaisyExamples/libDaisy//src/sys/system.h ****             cpu_freq    = SysClkFreq::FREQ_400MHZ;
  38:../DaisyExamples/libDaisy//src/sys/system.h ****             use_dcache  = true;
  39:../DaisyExamples/libDaisy//src/sys/system.h ****             use_icache  = true;
  40:../DaisyExamples/libDaisy//src/sys/system.h ****             skip_clocks = false;
  41:../DaisyExamples/libDaisy//src/sys/system.h ****         }
  42:../DaisyExamples/libDaisy//src/sys/system.h **** 
  43:../DaisyExamples/libDaisy//src/sys/system.h ****         /** Method to call on the struct to set to boost mode:
  44:../DaisyExamples/libDaisy//src/sys/system.h ****          ** CPU Freq set to 480MHz
  45:../DaisyExamples/libDaisy//src/sys/system.h ****          ** Cache Enabled 
  46:../DaisyExamples/libDaisy//src/sys/system.h ****          ** */
  47:../DaisyExamples/libDaisy//src/sys/system.h ****         void Boost()
  48:../DaisyExamples/libDaisy//src/sys/system.h ****         {
  49:../DaisyExamples/libDaisy//src/sys/system.h ****             cpu_freq    = SysClkFreq::FREQ_480MHZ;
  50:../DaisyExamples/libDaisy//src/sys/system.h ****             use_dcache  = true;
  51:../DaisyExamples/libDaisy//src/sys/system.h ****             use_icache  = true;
  52:../DaisyExamples/libDaisy//src/sys/system.h ****             skip_clocks = false;
  53:../DaisyExamples/libDaisy//src/sys/system.h ****         }
  54:../DaisyExamples/libDaisy//src/sys/system.h **** 
  55:../DaisyExamples/libDaisy//src/sys/system.h ****         SysClkFreq cpu_freq;
  56:../DaisyExamples/libDaisy//src/sys/system.h ****         bool       use_dcache;
ARM GAS  /var/folders/1p/hl98tgf51p19ck4ldyh6xb6c0000gn/T//ccZqo17l.s 			page 3


  57:../DaisyExamples/libDaisy//src/sys/system.h ****         bool       use_icache;
  58:../DaisyExamples/libDaisy//src/sys/system.h ****         bool       skip_clocks;
  59:../DaisyExamples/libDaisy//src/sys/system.h ****     };
  60:../DaisyExamples/libDaisy//src/sys/system.h **** 
  61:../DaisyExamples/libDaisy//src/sys/system.h ****     /** Describes the different regions of memory available to the Daisy
  62:../DaisyExamples/libDaisy//src/sys/system.h ****      * 
  63:../DaisyExamples/libDaisy//src/sys/system.h ****      */
  64:../DaisyExamples/libDaisy//src/sys/system.h ****     enum MemoryRegion
  65:../DaisyExamples/libDaisy//src/sys/system.h ****     {
  66:../DaisyExamples/libDaisy//src/sys/system.h ****         INTERNAL_FLASH = 0,
  67:../DaisyExamples/libDaisy//src/sys/system.h ****         ITCMRAM,
  68:../DaisyExamples/libDaisy//src/sys/system.h ****         DTCMRAM,
  69:../DaisyExamples/libDaisy//src/sys/system.h ****         SRAM_D1,
  70:../DaisyExamples/libDaisy//src/sys/system.h ****         SRAM_D2,
  71:../DaisyExamples/libDaisy//src/sys/system.h ****         SRAM_D3,
  72:../DaisyExamples/libDaisy//src/sys/system.h ****         SDRAM,
  73:../DaisyExamples/libDaisy//src/sys/system.h ****         QSPI,
  74:../DaisyExamples/libDaisy//src/sys/system.h ****         INVALID_ADDRESS,
  75:../DaisyExamples/libDaisy//src/sys/system.h ****     };
  76:../DaisyExamples/libDaisy//src/sys/system.h **** 
  77:../DaisyExamples/libDaisy//src/sys/system.h ****     System() {}
  78:../DaisyExamples/libDaisy//src/sys/system.h ****     ~System() {}
  38              		.loc 2 78 5 view .LVU1
  39              		.loc 2 78 5 is_stmt 0 view .LVU2
  40              	.LBE366:
  41              	.LBB367:
  42              	.LBI367:
  43              		.file 3 "../DaisyExamples/libDaisy//src/hid/usb.h"
   1:../DaisyExamples/libDaisy//src/hid/usb.h **** #pragma once
   2:../DaisyExamples/libDaisy//src/hid/usb.h **** #ifndef DSY_HID_USB_H
   3:../DaisyExamples/libDaisy//src/hid/usb.h **** #define DSY_HID_USB_H
   4:../DaisyExamples/libDaisy//src/hid/usb.h **** #include <stdint.h>
   5:../DaisyExamples/libDaisy//src/hid/usb.h **** #include <stdlib.h>
   6:../DaisyExamples/libDaisy//src/hid/usb.h **** 
   7:../DaisyExamples/libDaisy//src/hid/usb.h **** namespace daisy
   8:../DaisyExamples/libDaisy//src/hid/usb.h **** /** @addtogroup human_interface
   9:../DaisyExamples/libDaisy//src/hid/usb.h ****     @{
  10:../DaisyExamples/libDaisy//src/hid/usb.h **** */
  11:../DaisyExamples/libDaisy//src/hid/usb.h **** 
  12:../DaisyExamples/libDaisy//src/hid/usb.h **** {
  13:../DaisyExamples/libDaisy//src/hid/usb.h **** /** 
  14:../DaisyExamples/libDaisy//src/hid/usb.h ****     @brief Interface for initializing and using the USB Peripherals on the daisy
  15:../DaisyExamples/libDaisy//src/hid/usb.h ****     @author Stephen Hensley
  16:../DaisyExamples/libDaisy//src/hid/usb.h ****     @date December 2019
  17:../DaisyExamples/libDaisy//src/hid/usb.h **** */
  18:../DaisyExamples/libDaisy//src/hid/usb.h **** class UsbHandle
  19:../DaisyExamples/libDaisy//src/hid/usb.h **** {
  20:../DaisyExamples/libDaisy//src/hid/usb.h ****   public:
  21:../DaisyExamples/libDaisy//src/hid/usb.h ****     /** Return values for USBHandle Functions */
  22:../DaisyExamples/libDaisy//src/hid/usb.h ****     enum class Result
  23:../DaisyExamples/libDaisy//src/hid/usb.h ****     {
  24:../DaisyExamples/libDaisy//src/hid/usb.h ****         OK,
  25:../DaisyExamples/libDaisy//src/hid/usb.h ****         ERR,
  26:../DaisyExamples/libDaisy//src/hid/usb.h ****     };
  27:../DaisyExamples/libDaisy//src/hid/usb.h **** 
  28:../DaisyExamples/libDaisy//src/hid/usb.h ****     /** Specified which of the two USB Peripherals to initialize. */
  29:../DaisyExamples/libDaisy//src/hid/usb.h ****     enum UsbPeriph
ARM GAS  /var/folders/1p/hl98tgf51p19ck4ldyh6xb6c0000gn/T//ccZqo17l.s 			page 4


  30:../DaisyExamples/libDaisy//src/hid/usb.h ****     {
  31:../DaisyExamples/libDaisy//src/hid/usb.h ****         FS_INTERNAL, /**< Internal pin */
  32:../DaisyExamples/libDaisy//src/hid/usb.h ****         FS_EXTERNAL, /**< FS External D+ pin is Pin 38 (GPIO32). FS External D- pin is Pin 37 (GPIO
  33:../DaisyExamples/libDaisy//src/hid/usb.h ****         FS_BOTH,     /**< Both */
  34:../DaisyExamples/libDaisy//src/hid/usb.h ****     };
  35:../DaisyExamples/libDaisy//src/hid/usb.h **** 
  36:../DaisyExamples/libDaisy//src/hid/usb.h **** 
  37:../DaisyExamples/libDaisy//src/hid/usb.h ****     /** Function called upon reception of a buffer */
  38:../DaisyExamples/libDaisy//src/hid/usb.h ****     typedef void (*ReceiveCallback)(uint8_t* buff, uint32_t* len);
  39:../DaisyExamples/libDaisy//src/hid/usb.h **** 
  40:../DaisyExamples/libDaisy//src/hid/usb.h ****     UsbHandle() {}
  41:../DaisyExamples/libDaisy//src/hid/usb.h **** 
  42:../DaisyExamples/libDaisy//src/hid/usb.h ****     ~UsbHandle() {}
  44              		.loc 3 42 5 is_stmt 1 view .LVU3
  45              		.loc 3 42 5 is_stmt 0 view .LVU4
  46              	.LBE367:
  47              	.LBB368:
  48              	.LBI368:
  49              		.file 4 "../DaisyExamples/libDaisy//src/per/adc.h"
   1:../DaisyExamples/libDaisy//src/per/adc.h **** #pragma once
   2:../DaisyExamples/libDaisy//src/per/adc.h **** #ifndef DSY_ADC_H
   3:../DaisyExamples/libDaisy//src/per/adc.h **** #define DSY_ADC_H /**< Macro */
   4:../DaisyExamples/libDaisy//src/per/adc.h **** #include <stdint.h>
   5:../DaisyExamples/libDaisy//src/per/adc.h **** #include <stdlib.h>
   6:../DaisyExamples/libDaisy//src/per/adc.h **** #include "daisy_core.h"
   7:../DaisyExamples/libDaisy//src/per/adc.h **** #include "per/gpio.h"
   8:../DaisyExamples/libDaisy//src/per/adc.h **** 
   9:../DaisyExamples/libDaisy//src/per/adc.h **** #define DSY_ADC_MAX_CHANNELS 16 /**< Maximum number of ADC channels */
  10:../DaisyExamples/libDaisy//src/per/adc.h **** 
  11:../DaisyExamples/libDaisy//src/per/adc.h **** namespace daisy
  12:../DaisyExamples/libDaisy//src/per/adc.h **** {
  13:../DaisyExamples/libDaisy//src/per/adc.h **** /** @addtogroup per_analog
  14:../DaisyExamples/libDaisy//src/per/adc.h ****     @{
  15:../DaisyExamples/libDaisy//src/per/adc.h **** */
  16:../DaisyExamples/libDaisy//src/per/adc.h **** 
  17:../DaisyExamples/libDaisy//src/per/adc.h **** /* While there may not be many configuration options here,
  18:../DaisyExamples/libDaisy//src/per/adc.h **** using a struct like this allows us to add more configuration
  19:../DaisyExamples/libDaisy//src/per/adc.h **** later without breaking existing functionality.
  20:../DaisyExamples/libDaisy//src/per/adc.h **** */
  21:../DaisyExamples/libDaisy//src/per/adc.h **** 
  22:../DaisyExamples/libDaisy//src/per/adc.h **** /** @brief   Configuration Structure for an ADC Channel 
  23:../DaisyExamples/libDaisy//src/per/adc.h ****  *  @details This can be used to configure a a single input, 
  24:../DaisyExamples/libDaisy//src/per/adc.h ****  *           or a multiplexed input, allowing up to 8 inputs on 
  25:../DaisyExamples/libDaisy//src/per/adc.h ****  *           one channel.
  26:../DaisyExamples/libDaisy//src/per/adc.h ****  *  @note    Sharing data lines to multiple muxes _is_ possible, but
  27:../DaisyExamples/libDaisy//src/per/adc.h ****  *           each channel sharing data lines must be set to the maximum
  28:../DaisyExamples/libDaisy//src/per/adc.h ****  *           number of channels, even if some multiplexers have fewer
  29:../DaisyExamples/libDaisy//src/per/adc.h ****  *           inputs connected.
  30:../DaisyExamples/libDaisy//src/per/adc.h **** */
  31:../DaisyExamples/libDaisy//src/per/adc.h **** struct AdcChannelConfig
  32:../DaisyExamples/libDaisy//src/per/adc.h **** {
  33:../DaisyExamples/libDaisy//src/per/adc.h ****     /** Which pin to use for multiplexing */
  34:../DaisyExamples/libDaisy//src/per/adc.h ****     enum MuxPin
  35:../DaisyExamples/libDaisy//src/per/adc.h ****     {
  36:../DaisyExamples/libDaisy//src/per/adc.h ****         MUX_SEL_0,    /**< & */
  37:../DaisyExamples/libDaisy//src/per/adc.h ****         MUX_SEL_1,    /**< & */
  38:../DaisyExamples/libDaisy//src/per/adc.h ****         MUX_SEL_2,    /**< & */
ARM GAS  /var/folders/1p/hl98tgf51p19ck4ldyh6xb6c0000gn/T//ccZqo17l.s 			page 5


  39:../DaisyExamples/libDaisy//src/per/adc.h ****         MUX_SEL_LAST, /**< & */
  40:../DaisyExamples/libDaisy//src/per/adc.h ****     };
  41:../DaisyExamples/libDaisy//src/per/adc.h **** 
  42:../DaisyExamples/libDaisy//src/per/adc.h ****     /** Initializes a single ADC pin as an ADC. 
  43:../DaisyExamples/libDaisy//src/per/adc.h ****     \param pin Pin to init.
  44:../DaisyExamples/libDaisy//src/per/adc.h ****      */
  45:../DaisyExamples/libDaisy//src/per/adc.h ****     void InitSingle(dsy_gpio_pin pin);
  46:../DaisyExamples/libDaisy//src/per/adc.h **** 
  47:../DaisyExamples/libDaisy//src/per/adc.h ****     /** 
  48:../DaisyExamples/libDaisy//src/per/adc.h ****     Initializes a single ADC pin as a Multiplexed ADC.
  49:../DaisyExamples/libDaisy//src/per/adc.h ****     Requires a CD405X Multiplexer connected to the pin.
  50:../DaisyExamples/libDaisy//src/per/adc.h ****     You only need to supply the mux pins that are required,
  51:../DaisyExamples/libDaisy//src/per/adc.h ****     e.g. a 4052 mux would only require mux_0 and mux_1.
  52:../DaisyExamples/libDaisy//src/per/adc.h ****     Internal Callbacks handle the pin addressing.
  53:../DaisyExamples/libDaisy//src/per/adc.h ****     \param mux_channels must be 1-8
  54:../DaisyExamples/libDaisy//src/per/adc.h ****     \param mux_0 First mux pin
  55:../DaisyExamples/libDaisy//src/per/adc.h ****     \param mux_1 Second mux pin
  56:../DaisyExamples/libDaisy//src/per/adc.h ****     \param mux_2 Third mux pin
  57:../DaisyExamples/libDaisy//src/per/adc.h ****     \param adc_pin &
  58:../DaisyExamples/libDaisy//src/per/adc.h ****     */
  59:../DaisyExamples/libDaisy//src/per/adc.h ****     void InitMux(dsy_gpio_pin adc_pin,
  60:../DaisyExamples/libDaisy//src/per/adc.h ****                  size_t       mux_channels,
  61:../DaisyExamples/libDaisy//src/per/adc.h ****                  dsy_gpio_pin mux_0,
  62:../DaisyExamples/libDaisy//src/per/adc.h ****                  dsy_gpio_pin mux_1 = {DSY_GPIOX, 0},
  63:../DaisyExamples/libDaisy//src/per/adc.h ****                  dsy_gpio_pin mux_2 = {DSY_GPIOX, 0});
  64:../DaisyExamples/libDaisy//src/per/adc.h **** 
  65:../DaisyExamples/libDaisy//src/per/adc.h ****     dsy_gpio pin_;                   /**< & */
  66:../DaisyExamples/libDaisy//src/per/adc.h ****     dsy_gpio mux_pin_[MUX_SEL_LAST]; /**< & */
  67:../DaisyExamples/libDaisy//src/per/adc.h ****     uint8_t  mux_channels_;          /**< & */
  68:../DaisyExamples/libDaisy//src/per/adc.h **** };
  69:../DaisyExamples/libDaisy//src/per/adc.h **** 
  70:../DaisyExamples/libDaisy//src/per/adc.h **** /**
  71:../DaisyExamples/libDaisy//src/per/adc.h ****    @brief Handler for analog to digital conversion
  72:../DaisyExamples/libDaisy//src/per/adc.h **** */
  73:../DaisyExamples/libDaisy//src/per/adc.h **** class AdcHandle
  74:../DaisyExamples/libDaisy//src/per/adc.h **** {
  75:../DaisyExamples/libDaisy//src/per/adc.h ****   public:
  76:../DaisyExamples/libDaisy//src/per/adc.h ****     /** Supported oversampling amounts */
  77:../DaisyExamples/libDaisy//src/per/adc.h ****     enum OverSampling
  78:../DaisyExamples/libDaisy//src/per/adc.h ****     {
  79:../DaisyExamples/libDaisy//src/per/adc.h ****         OVS_NONE, /**< & */
  80:../DaisyExamples/libDaisy//src/per/adc.h ****         OVS_4,    /**< & */
  81:../DaisyExamples/libDaisy//src/per/adc.h ****         OVS_8,    /**< & */
  82:../DaisyExamples/libDaisy//src/per/adc.h ****         OVS_16,   /**< & */
  83:../DaisyExamples/libDaisy//src/per/adc.h ****         OVS_32,   /**< & */
  84:../DaisyExamples/libDaisy//src/per/adc.h ****         OVS_64,   /**< & */
  85:../DaisyExamples/libDaisy//src/per/adc.h ****         OVS_128,  /**< & */
  86:../DaisyExamples/libDaisy//src/per/adc.h ****         OVS_256,  /**< & */
  87:../DaisyExamples/libDaisy//src/per/adc.h ****         OVS_512,  /**< & */
  88:../DaisyExamples/libDaisy//src/per/adc.h ****         OVS_1024, /**< & */
  89:../DaisyExamples/libDaisy//src/per/adc.h ****         OVS_LAST, /**< & */
  90:../DaisyExamples/libDaisy//src/per/adc.h ****     };
  91:../DaisyExamples/libDaisy//src/per/adc.h **** 
  92:../DaisyExamples/libDaisy//src/per/adc.h ****     AdcHandle() {}
  93:../DaisyExamples/libDaisy//src/per/adc.h ****     ~AdcHandle() {}
  50              		.loc 4 93 5 is_stmt 1 view .LVU5
  51              		.loc 4 93 5 is_stmt 0 view .LVU6
ARM GAS  /var/folders/1p/hl98tgf51p19ck4ldyh6xb6c0000gn/T//ccZqo17l.s 			page 6


  52              	.LBE368:
  53              	.LBB369:
  54              	.LBI369:
  55              		.file 5 "../DaisyExamples/libDaisy//src/hid/audio.h"
   1:../DaisyExamples/libDaisy//src/hid/audio.h **** #ifndef DSY_AUDIO_H
   2:../DaisyExamples/libDaisy//src/hid/audio.h **** #define DSY_AUDIO_H /**< & */
   3:../DaisyExamples/libDaisy//src/hid/audio.h **** 
   4:../DaisyExamples/libDaisy//src/hid/audio.h **** #include "per/sai.h"
   5:../DaisyExamples/libDaisy//src/hid/audio.h **** 
   6:../DaisyExamples/libDaisy//src/hid/audio.h **** namespace daisy
   7:../DaisyExamples/libDaisy//src/hid/audio.h **** {
   8:../DaisyExamples/libDaisy//src/hid/audio.h **** /** @brief Audio Engine Handle
   9:../DaisyExamples/libDaisy//src/hid/audio.h ****  *  @ingroup audio 
  10:../DaisyExamples/libDaisy//src/hid/audio.h ****  *  @details This class allows for higher level access to an audio engine.
  11:../DaisyExamples/libDaisy//src/hid/audio.h ****  *           If you're using a SOM like the DaisySeed or DaisyPatchSM (or any 
  12:../DaisyExamples/libDaisy//src/hid/audio.h ****  *            board that includes one of those objects) then the intialization
  13:../DaisyExamples/libDaisy//src/hid/audio.h ****  *            is already taken  care of.
  14:../DaisyExamples/libDaisy//src/hid/audio.h ****  *           If you're setting up your own custom hardware, or need to make changes
  15:../DaisyExamples/libDaisy//src/hid/audio.h ****  *           you will have to take the following steps:
  16:../DaisyExamples/libDaisy//src/hid/audio.h ****  *             1. Create and Initialize an SaiHandle or two depending on your requirements
  17:../DaisyExamples/libDaisy//src/hid/audio.h ****  *             2. Initialize the Audio Handle with the desired settings and the Initialized SaiHand
  18:../DaisyExamples/libDaisy//src/hid/audio.h ****  *             3. If the connected codec requires special configuration or initialization, do so
  19:../DaisyExamples/libDaisy//src/hid/audio.h ****  *             4. Write a callback method using either the AudioCallback or the InterleavingAudioCa
  20:../DaisyExamples/libDaisy//src/hid/audio.h ****  *             5. Start the Audio using one of the StartAudio function
  21:../DaisyExamples/libDaisy//src/hid/audio.h ****  */
  22:../DaisyExamples/libDaisy//src/hid/audio.h **** class AudioHandle
  23:../DaisyExamples/libDaisy//src/hid/audio.h **** {
  24:../DaisyExamples/libDaisy//src/hid/audio.h ****   public:
  25:../DaisyExamples/libDaisy//src/hid/audio.h ****     /** Manually configurable details about the Audio Engine */
  26:../DaisyExamples/libDaisy//src/hid/audio.h ****     /** TODO: Figure out how to get samplerate in here. */
  27:../DaisyExamples/libDaisy//src/hid/audio.h ****     struct Config
  28:../DaisyExamples/libDaisy//src/hid/audio.h ****     {
  29:../DaisyExamples/libDaisy//src/hid/audio.h ****         /** number of samples to process per callback */
  30:../DaisyExamples/libDaisy//src/hid/audio.h ****         size_t blocksize;
  31:../DaisyExamples/libDaisy//src/hid/audio.h **** 
  32:../DaisyExamples/libDaisy//src/hid/audio.h ****         /**< Sample rate of audio */
  33:../DaisyExamples/libDaisy//src/hid/audio.h ****         SaiHandle::Config::SampleRate samplerate;
  34:../DaisyExamples/libDaisy//src/hid/audio.h **** 
  35:../DaisyExamples/libDaisy//src/hid/audio.h ****         /** factor for adjustment before and after callback for hardware that may have extra headro
  36:../DaisyExamples/libDaisy//src/hid/audio.h ****         float postgain;
  37:../DaisyExamples/libDaisy//src/hid/audio.h **** 
  38:../DaisyExamples/libDaisy//src/hid/audio.h ****         /** factor for additional one-sided compensation to audio path for hardware that may
  39:../DaisyExamples/libDaisy//src/hid/audio.h ****          *  have unequal input/output ranges
  40:../DaisyExamples/libDaisy//src/hid/audio.h ****          */
  41:../DaisyExamples/libDaisy//src/hid/audio.h ****         float output_compensation;
  42:../DaisyExamples/libDaisy//src/hid/audio.h **** 
  43:../DaisyExamples/libDaisy//src/hid/audio.h ****         /** Sets default values for config struct */
  44:../DaisyExamples/libDaisy//src/hid/audio.h ****         Config()
  45:../DaisyExamples/libDaisy//src/hid/audio.h ****         : blocksize(48),
  46:../DaisyExamples/libDaisy//src/hid/audio.h ****           samplerate(SaiHandle::Config::SampleRate::SAI_48KHZ),
  47:../DaisyExamples/libDaisy//src/hid/audio.h ****           postgain(1.f),
  48:../DaisyExamples/libDaisy//src/hid/audio.h ****           output_compensation(1.f)
  49:../DaisyExamples/libDaisy//src/hid/audio.h ****         {
  50:../DaisyExamples/libDaisy//src/hid/audio.h ****         }
  51:../DaisyExamples/libDaisy//src/hid/audio.h ****     };
  52:../DaisyExamples/libDaisy//src/hid/audio.h **** 
  53:../DaisyExamples/libDaisy//src/hid/audio.h ****     enum class Result
ARM GAS  /var/folders/1p/hl98tgf51p19ck4ldyh6xb6c0000gn/T//ccZqo17l.s 			page 7


  54:../DaisyExamples/libDaisy//src/hid/audio.h ****     {
  55:../DaisyExamples/libDaisy//src/hid/audio.h ****         OK,
  56:../DaisyExamples/libDaisy//src/hid/audio.h ****         ERR,
  57:../DaisyExamples/libDaisy//src/hid/audio.h ****     };
  58:../DaisyExamples/libDaisy//src/hid/audio.h **** 
  59:../DaisyExamples/libDaisy//src/hid/audio.h ****     /** Non-Interleaving input buffer
  60:../DaisyExamples/libDaisy//src/hid/audio.h ****      * Buffer arranged by float[chn][sample] 
  61:../DaisyExamples/libDaisy//src/hid/audio.h ****      * const so that the user can't modify the input
  62:../DaisyExamples/libDaisy//src/hid/audio.h ****      */
  63:../DaisyExamples/libDaisy//src/hid/audio.h ****     typedef const float* const* InputBuffer;
  64:../DaisyExamples/libDaisy//src/hid/audio.h **** 
  65:../DaisyExamples/libDaisy//src/hid/audio.h ****     /** Non-Interleaving output buffer
  66:../DaisyExamples/libDaisy//src/hid/audio.h ****      * Arranged by float[chn][sample] 
  67:../DaisyExamples/libDaisy//src/hid/audio.h ****      */
  68:../DaisyExamples/libDaisy//src/hid/audio.h ****     typedef float** OutputBuffer;
  69:../DaisyExamples/libDaisy//src/hid/audio.h **** 
  70:../DaisyExamples/libDaisy//src/hid/audio.h ****     /** Type for a Non-Interleaving audio callback 
  71:../DaisyExamples/libDaisy//src/hid/audio.h ****      * Non-Interleaving audio callbacks in daisy will be of this type
  72:../DaisyExamples/libDaisy//src/hid/audio.h ****      */
  73:../DaisyExamples/libDaisy//src/hid/audio.h ****     typedef void (*AudioCallback)(InputBuffer  in,
  74:../DaisyExamples/libDaisy//src/hid/audio.h ****                                   OutputBuffer out,
  75:../DaisyExamples/libDaisy//src/hid/audio.h ****                                   size_t       size);
  76:../DaisyExamples/libDaisy//src/hid/audio.h **** 
  77:../DaisyExamples/libDaisy//src/hid/audio.h ****     /** Interleaving Input buffer
  78:../DaisyExamples/libDaisy//src/hid/audio.h ****      ** audio is prepared as { L0, R0, L1, R1, . . . LN, RN }]
  79:../DaisyExamples/libDaisy//src/hid/audio.h ****      ** this is const, as the user shouldn't modify it
  80:../DaisyExamples/libDaisy//src/hid/audio.h ****     */
  81:../DaisyExamples/libDaisy//src/hid/audio.h ****     typedef const float* InterleavingInputBuffer;
  82:../DaisyExamples/libDaisy//src/hid/audio.h **** 
  83:../DaisyExamples/libDaisy//src/hid/audio.h ****     /** Interleaving Output buffer 
  84:../DaisyExamples/libDaisy//src/hid/audio.h ****      ** audio is prepared as { L0, R0, L1, R1, . . . LN, RN }
  85:../DaisyExamples/libDaisy//src/hid/audio.h ****     */
  86:../DaisyExamples/libDaisy//src/hid/audio.h ****     typedef float* InterleavingOutputBuffer;
  87:../DaisyExamples/libDaisy//src/hid/audio.h **** 
  88:../DaisyExamples/libDaisy//src/hid/audio.h ****     /** Interleaving Audio Callback 
  89:../DaisyExamples/libDaisy//src/hid/audio.h ****      * Interleaving audio callbacks in daisy must be of this type
  90:../DaisyExamples/libDaisy//src/hid/audio.h ****      */
  91:../DaisyExamples/libDaisy//src/hid/audio.h ****     typedef void (*InterleavingAudioCallback)(InterleavingInputBuffer  in,
  92:../DaisyExamples/libDaisy//src/hid/audio.h ****                                               InterleavingOutputBuffer out,
  93:../DaisyExamples/libDaisy//src/hid/audio.h ****                                               size_t                   size);
  94:../DaisyExamples/libDaisy//src/hid/audio.h **** 
  95:../DaisyExamples/libDaisy//src/hid/audio.h ****     AudioHandle() : pimpl_(nullptr) {}
  96:../DaisyExamples/libDaisy//src/hid/audio.h ****     ~AudioHandle() {}
  56              		.loc 5 96 5 is_stmt 1 view .LVU7
  57              		.loc 5 96 5 is_stmt 0 view .LVU8
  58              	.LBE369:
  59              		.loc 1 22 19 view .LVU9
  60 0000 7047     		bx	lr
  61              		.cfi_endproc
  62              	.LFE2529:
  64              		.weak	_ZN5daisy9DaisySeedD1Ev
  65              		.thumb_set _ZN5daisy9DaisySeedD1Ev,_ZN5daisy9DaisySeedD2Ev
  66 0002 00BF     		.section	.text._ZN7daisysp4LineD2Ev,"axG",%progbits,_ZN7daisysp4LineD5Ev,comdat
  67              		.align	1
  68              		.p2align 2,,3
  69              		.weak	_ZN7daisysp4LineD2Ev
  70              		.syntax unified
ARM GAS  /var/folders/1p/hl98tgf51p19ck4ldyh6xb6c0000gn/T//ccZqo17l.s 			page 8


  71              		.thumb
  72              		.thumb_func
  74              	_ZN7daisysp4LineD2Ev:
  75              	.LVL1:
  76              	.LFB2561:
  77              		.file 6 "../DaisyExamples/DaisySP//Source/Control/line.h"
   1:../DaisyExamples/DaisySP//Source/Control/line.h **** #pragma once
   2:../DaisyExamples/DaisySP//Source/Control/line.h **** #ifndef LINE_H
   3:../DaisyExamples/DaisySP//Source/Control/line.h **** #define LINE_H
   4:../DaisyExamples/DaisySP//Source/Control/line.h **** #include <stdint.h>
   5:../DaisyExamples/DaisySP//Source/Control/line.h **** #ifdef __cplusplus
   6:../DaisyExamples/DaisySP//Source/Control/line.h **** 
   7:../DaisyExamples/DaisySP//Source/Control/line.h **** namespace daisysp
   8:../DaisyExamples/DaisySP//Source/Control/line.h **** {
   9:../DaisyExamples/DaisySP//Source/Control/line.h **** /** creates a Line segment signal
  10:../DaisyExamples/DaisySP//Source/Control/line.h ****     */
  11:../DaisyExamples/DaisySP//Source/Control/line.h **** class Line
  12:../DaisyExamples/DaisySP//Source/Control/line.h **** {
  13:../DaisyExamples/DaisySP//Source/Control/line.h ****   public:
  14:../DaisyExamples/DaisySP//Source/Control/line.h ****     Line() {}
  15:../DaisyExamples/DaisySP//Source/Control/line.h ****     ~Line() {}
  78              		.loc 6 15 5 is_stmt 1 view -0
  79              		.cfi_startproc
  80              		@ args = 0, pretend = 0, frame = 0
  81              		@ frame_needed = 0, uses_anonymous_args = 0
  82              		@ link register save eliminated.
  83              		.loc 6 15 14 is_stmt 0 view .LVU11
  84 0000 7047     		bx	lr
  85              		.cfi_endproc
  86              	.LFE2561:
  88              		.weak	_ZN7daisysp4LineD1Ev
  89              		.thumb_set _ZN7daisysp4LineD1Ev,_ZN7daisysp4LineD2Ev
  90 0002 00BF     		.section	.text._ZN7daisysp10OscillatorD2Ev,"axG",%progbits,_ZN7daisysp10OscillatorD5Ev,comdat
  91              		.align	1
  92              		.p2align 2,,3
  93              		.weak	_ZN7daisysp10OscillatorD2Ev
  94              		.syntax unified
  95              		.thumb
  96              		.thumb_func
  98              	_ZN7daisysp10OscillatorD2Ev:
  99              	.LVL2:
 100              	.LFB4219:
 101              		.file 7 "../DaisyExamples/DaisySP//Source/Synthesis/oscillator.h"
   1:../DaisyExamples/DaisySP//Source/Synthesis/oscillator.h **** #pragma once
   2:../DaisyExamples/DaisySP//Source/Synthesis/oscillator.h **** #ifndef DSY_OSCILLATOR_H
   3:../DaisyExamples/DaisySP//Source/Synthesis/oscillator.h **** #define DSY_OSCILLATOR_H
   4:../DaisyExamples/DaisySP//Source/Synthesis/oscillator.h **** #include <stdint.h>
   5:../DaisyExamples/DaisySP//Source/Synthesis/oscillator.h **** #include "Utility/dsp.h"
   6:../DaisyExamples/DaisySP//Source/Synthesis/oscillator.h **** #ifdef __cplusplus
   7:../DaisyExamples/DaisySP//Source/Synthesis/oscillator.h **** 
   8:../DaisyExamples/DaisySP//Source/Synthesis/oscillator.h **** namespace daisysp
   9:../DaisyExamples/DaisySP//Source/Synthesis/oscillator.h **** {
  10:../DaisyExamples/DaisySP//Source/Synthesis/oscillator.h **** /** Synthesis of several waveforms, including polyBLEP bandlimited waveforms.
  11:../DaisyExamples/DaisySP//Source/Synthesis/oscillator.h **** */
  12:../DaisyExamples/DaisySP//Source/Synthesis/oscillator.h **** class Oscillator
  13:../DaisyExamples/DaisySP//Source/Synthesis/oscillator.h **** {
  14:../DaisyExamples/DaisySP//Source/Synthesis/oscillator.h ****   public:
ARM GAS  /var/folders/1p/hl98tgf51p19ck4ldyh6xb6c0000gn/T//ccZqo17l.s 			page 9


  15:../DaisyExamples/DaisySP//Source/Synthesis/oscillator.h ****     Oscillator() {}
  16:../DaisyExamples/DaisySP//Source/Synthesis/oscillator.h ****     ~Oscillator() {}
 102              		.loc 7 16 5 is_stmt 1 view -0
 103              		.cfi_startproc
 104              		@ args = 0, pretend = 0, frame = 0
 105              		@ frame_needed = 0, uses_anonymous_args = 0
 106              		@ link register save eliminated.
 107              		.loc 7 16 20 is_stmt 0 view .LVU13
 108 0000 7047     		bx	lr
 109              		.cfi_endproc
 110              	.LFE4219:
 112              		.weak	_ZN7daisysp10OscillatorD1Ev
 113              		.thumb_set _ZN7daisysp10OscillatorD1Ev,_ZN7daisysp10OscillatorD2Ev
 114 0002 00BF     		.section	.text._ZN7daisysp3SvfD2Ev,"axG",%progbits,_ZN7daisysp3SvfD5Ev,comdat
 115              		.align	1
 116              		.p2align 2,,3
 117              		.weak	_ZN7daisysp3SvfD2Ev
 118              		.syntax unified
 119              		.thumb
 120              		.thumb_func
 122              	_ZN7daisysp3SvfD2Ev:
 123              	.LVL3:
 124              	.LFB4236:
 125              		.file 8 "../DaisyExamples/DaisySP//Source/Filters/svf.h"
   1:../DaisyExamples/DaisySP//Source/Filters/svf.h **** #pragma once
   2:../DaisyExamples/DaisySP//Source/Filters/svf.h **** #ifndef DSY_SVF_H
   3:../DaisyExamples/DaisySP//Source/Filters/svf.h **** #define DSY_SVF_H
   4:../DaisyExamples/DaisySP//Source/Filters/svf.h **** 
   5:../DaisyExamples/DaisySP//Source/Filters/svf.h **** namespace daisysp
   6:../DaisyExamples/DaisySP//Source/Filters/svf.h **** {
   7:../DaisyExamples/DaisySP//Source/Filters/svf.h **** /**      Double Sampled, Stable State Variable Filter
   8:../DaisyExamples/DaisySP//Source/Filters/svf.h **** 
   9:../DaisyExamples/DaisySP//Source/Filters/svf.h **** Credit to Andrew Simper from musicdsp.org
  10:../DaisyExamples/DaisySP//Source/Filters/svf.h **** 
  11:../DaisyExamples/DaisySP//Source/Filters/svf.h **** This is his "State Variable Filter (Double Sampled, Stable)"
  12:../DaisyExamples/DaisySP//Source/Filters/svf.h **** 
  13:../DaisyExamples/DaisySP//Source/Filters/svf.h **** Additional thanks to Laurent de Soras for stability limit, and 
  14:../DaisyExamples/DaisySP//Source/Filters/svf.h **** Stefan Diedrichsen for the correct notch output
  15:../DaisyExamples/DaisySP//Source/Filters/svf.h **** 
  16:../DaisyExamples/DaisySP//Source/Filters/svf.h **** Ported by: Stephen Hensley
  17:../DaisyExamples/DaisySP//Source/Filters/svf.h **** */
  18:../DaisyExamples/DaisySP//Source/Filters/svf.h **** class Svf
  19:../DaisyExamples/DaisySP//Source/Filters/svf.h **** {
  20:../DaisyExamples/DaisySP//Source/Filters/svf.h ****   public:
  21:../DaisyExamples/DaisySP//Source/Filters/svf.h ****     Svf() {}
  22:../DaisyExamples/DaisySP//Source/Filters/svf.h ****     ~Svf() {}
 126              		.loc 8 22 5 is_stmt 1 view -0
 127              		.cfi_startproc
 128              		@ args = 0, pretend = 0, frame = 0
 129              		@ frame_needed = 0, uses_anonymous_args = 0
 130              		@ link register save eliminated.
 131              		.loc 8 22 13 is_stmt 0 view .LVU15
 132 0000 7047     		bx	lr
 133              		.cfi_endproc
 134              	.LFE4236:
 136              		.weak	_ZN7daisysp3SvfD1Ev
 137              		.thumb_set _ZN7daisysp3SvfD1Ev,_ZN7daisysp3SvfD2Ev
ARM GAS  /var/folders/1p/hl98tgf51p19ck4ldyh6xb6c0000gn/T//ccZqo17l.s 			page 10


 138 0002 00BF     		.section	.text._ZN7daisysp10WhiteNoiseD2Ev,"axG",%progbits,_ZN7daisysp10WhiteNoiseD5Ev,comdat
 139              		.align	1
 140              		.p2align 2,,3
 141              		.weak	_ZN7daisysp10WhiteNoiseD2Ev
 142              		.syntax unified
 143              		.thumb
 144              		.thumb_func
 146              	_ZN7daisysp10WhiteNoiseD2Ev:
 147              	.LVL4:
 148              	.LFB4594:
 149              		.file 9 "../DaisyExamples/DaisySP//Source/Noise/whitenoise.h"
   1:../DaisyExamples/DaisySP//Source/Noise/whitenoise.h **** #pragma once
   2:../DaisyExamples/DaisySP//Source/Noise/whitenoise.h **** #ifndef DSY_WHITENOISE_H
   3:../DaisyExamples/DaisySP//Source/Noise/whitenoise.h **** #define DSY_WHITENOISE_H
   4:../DaisyExamples/DaisySP//Source/Noise/whitenoise.h **** #include <stdint.h>
   5:../DaisyExamples/DaisySP//Source/Noise/whitenoise.h **** #ifdef __cplusplus
   6:../DaisyExamples/DaisySP//Source/Noise/whitenoise.h **** namespace daisysp
   7:../DaisyExamples/DaisySP//Source/Noise/whitenoise.h **** {
   8:../DaisyExamples/DaisySP//Source/Noise/whitenoise.h **** /** fast white noise generator
   9:../DaisyExamples/DaisySP//Source/Noise/whitenoise.h **** 
  10:../DaisyExamples/DaisySP//Source/Noise/whitenoise.h ****     I think this came from musicdsp.org at some point
  11:../DaisyExamples/DaisySP//Source/Noise/whitenoise.h **** */
  12:../DaisyExamples/DaisySP//Source/Noise/whitenoise.h **** class WhiteNoise
  13:../DaisyExamples/DaisySP//Source/Noise/whitenoise.h **** {
  14:../DaisyExamples/DaisySP//Source/Noise/whitenoise.h ****   public:
  15:../DaisyExamples/DaisySP//Source/Noise/whitenoise.h ****     WhiteNoise() {}
  16:../DaisyExamples/DaisySP//Source/Noise/whitenoise.h ****     ~WhiteNoise() {}
 150              		.loc 9 16 5 is_stmt 1 view -0
 151              		.cfi_startproc
 152              		@ args = 0, pretend = 0, frame = 0
 153              		@ frame_needed = 0, uses_anonymous_args = 0
 154              		@ link register save eliminated.
 155              		.loc 9 16 20 is_stmt 0 view .LVU17
 156 0000 7047     		bx	lr
 157              		.cfi_endproc
 158              	.LFE4594:
 160              		.weak	_ZN7daisysp10WhiteNoiseD1Ev
 161              		.thumb_set _ZN7daisysp10WhiteNoiseD1Ev,_ZN7daisysp10WhiteNoiseD2Ev
 162 0002 00BF     		.section	.text._ZN7daisysp4PortD2Ev,"axG",%progbits,_ZN7daisysp4PortD5Ev,comdat
 163              		.align	1
 164              		.p2align 2,,3
 165              		.weak	_ZN7daisysp4PortD2Ev
 166              		.syntax unified
 167              		.thumb
 168              		.thumb_func
 170              	_ZN7daisysp4PortD2Ev:
 171              	.LVL5:
 172              	.LFB4768:
 173              		.file 10 "../DaisyExamples/DaisySP//Source/Utility/port.h"
   1:../DaisyExamples/DaisySP//Source/Utility/port.h **** 
   2:../DaisyExamples/DaisySP//Source/Utility/port.h **** #pragma once
   3:../DaisyExamples/DaisySP//Source/Utility/port.h **** #ifndef DSY_PORT_H
   4:../DaisyExamples/DaisySP//Source/Utility/port.h **** #define DSY_PORT_H
   5:../DaisyExamples/DaisySP//Source/Utility/port.h **** #ifdef __cplusplus
   6:../DaisyExamples/DaisySP//Source/Utility/port.h **** 
   7:../DaisyExamples/DaisySP//Source/Utility/port.h **** namespace daisysp
   8:../DaisyExamples/DaisySP//Source/Utility/port.h **** {
ARM GAS  /var/folders/1p/hl98tgf51p19ck4ldyh6xb6c0000gn/T//ccZqo17l.s 			page 11


   9:../DaisyExamples/DaisySP//Source/Utility/port.h **** /** Applies portamento to an input signal. 
  10:../DaisyExamples/DaisySP//Source/Utility/port.h **** 
  11:../DaisyExamples/DaisySP//Source/Utility/port.h **** At each new step value, the input is low-pass filtered to 
  12:../DaisyExamples/DaisySP//Source/Utility/port.h **** move towards that value at a rate determined by ihtim. ihtim is the half-time of the 
  13:../DaisyExamples/DaisySP//Source/Utility/port.h **** function (in seconds), during which the curve will traverse half the distance towards the new value
  14:../DaisyExamples/DaisySP//Source/Utility/port.h **** then half as much again, etc., theoretically never reaching its asymptote.
  15:../DaisyExamples/DaisySP//Source/Utility/port.h **** 
  16:../DaisyExamples/DaisySP//Source/Utility/port.h **** This code has been ported from Soundpipe to DaisySP by Paul Batchelor. 
  17:../DaisyExamples/DaisySP//Source/Utility/port.h **** 
  18:../DaisyExamples/DaisySP//Source/Utility/port.h **** The Soundpipe module was extracted from the Csound opcode "portk".
  19:../DaisyExamples/DaisySP//Source/Utility/port.h **** 
  20:../DaisyExamples/DaisySP//Source/Utility/port.h **** Original Author(s): Robbin Whittle, John ffitch
  21:../DaisyExamples/DaisySP//Source/Utility/port.h **** 
  22:../DaisyExamples/DaisySP//Source/Utility/port.h **** Year: 1995, 1998
  23:../DaisyExamples/DaisySP//Source/Utility/port.h **** 
  24:../DaisyExamples/DaisySP//Source/Utility/port.h **** Location: Opcodes/biquad.c
  25:../DaisyExamples/DaisySP//Source/Utility/port.h **** */
  26:../DaisyExamples/DaisySP//Source/Utility/port.h **** class Port
  27:../DaisyExamples/DaisySP//Source/Utility/port.h **** {
  28:../DaisyExamples/DaisySP//Source/Utility/port.h ****   public:
  29:../DaisyExamples/DaisySP//Source/Utility/port.h ****     Port() {}
  30:../DaisyExamples/DaisySP//Source/Utility/port.h ****     ~Port() {}
 174              		.loc 10 30 5 is_stmt 1 view -0
 175              		.cfi_startproc
 176              		@ args = 0, pretend = 0, frame = 0
 177              		@ frame_needed = 0, uses_anonymous_args = 0
 178              		@ link register save eliminated.
 179              		.loc 10 30 14 is_stmt 0 view .LVU19
 180 0000 7047     		bx	lr
 181              		.cfi_endproc
 182              	.LFE4768:
 184              		.weak	_ZN7daisysp4PortD1Ev
 185              		.thumb_set _ZN7daisysp4PortD1Ev,_ZN7daisysp4PortD2Ev
 186 0002 00BF     		.section	.text.__tcf_0,"ax",%progbits
 187              		.align	1
 188              		.p2align 2,,3
 189              		.syntax unified
 190              		.thumb
 191              		.thumb_func
 193              	__tcf_0:
 194              	.LFB5420:
 195              		.file 11 "source.cpp"
   1:source.cpp    **** #include "daisy_seed.h"
   2:source.cpp    **** #include "daisysp.h"
   3:source.cpp    **** #include "magictape_lib.h"
   4:source.cpp    **** #include "singingbowl.h"
   5:source.cpp    **** 
   6:source.cpp    **** constexpr u_int8_t NUM_BOWLS = 6;
   7:source.cpp    **** 
   8:source.cpp    **** 
   9:source.cpp    **** using namespace daisy;
  10:source.cpp    **** using namespace daisysp;
  11:source.cpp    **** 
  12:source.cpp    **** DaisySeed hw;
  13:source.cpp    **** SingingBowl Bowls[NUM_BOWLS];
 196              		.loc 11 13 13 is_stmt 1 view -0
 197              		.cfi_startproc
ARM GAS  /var/folders/1p/hl98tgf51p19ck4ldyh6xb6c0000gn/T//ccZqo17l.s 			page 12


 198              		@ args = 0, pretend = 0, frame = 0
 199              		@ frame_needed = 0, uses_anonymous_args = 0
 200              		@ link register save eliminated.
 201              		.loc 11 13 13 is_stmt 0 view .LVU21
 202 0000 7047     		bx	lr
 203              		.cfi_endproc
 204              	.LFE5420:
 206 0002 00BF     		.section	.text._ZN5daisy6Mpr121INS_18Mpr121I2CTransportEED2Ev,"axG",%progbits,_ZN5daisy6Mpr121INS_
 207              		.align	1
 208              		.p2align 2,,3
 209              		.weak	_ZN5daisy6Mpr121INS_18Mpr121I2CTransportEED2Ev
 210              		.syntax unified
 211              		.thumb
 212              		.thumb_func
 214              	_ZN5daisy6Mpr121INS_18Mpr121I2CTransportEED2Ev:
 215              	.LVL6:
 216              	.LFB5425:
 217              		.file 12 "../DaisyExamples/libDaisy//src/dev/mpr121.h"
   1:../DaisyExamples/libDaisy//src/dev/mpr121.h **** #pragma once
   2:../DaisyExamples/libDaisy//src/dev/mpr121.h **** #ifndef DSY_MPR121_H
   3:../DaisyExamples/libDaisy//src/dev/mpr121.h **** #define DSY_MPR121_H
   4:../DaisyExamples/libDaisy//src/dev/mpr121.h **** 
   5:../DaisyExamples/libDaisy//src/dev/mpr121.h **** // The default I2C address
   6:../DaisyExamples/libDaisy//src/dev/mpr121.h **** #define MPR121_I2CADDR_DEFAULT 0x5A        ///< default I2C address
   7:../DaisyExamples/libDaisy//src/dev/mpr121.h **** #define MPR121_TOUCH_THRESHOLD_DEFAULT 12  ///< default touch threshold value
   8:../DaisyExamples/libDaisy//src/dev/mpr121.h **** #define MPR121_RELEASE_THRESHOLD_DEFAULT 6 ///< default relese threshold value
   9:../DaisyExamples/libDaisy//src/dev/mpr121.h **** 
  10:../DaisyExamples/libDaisy//src/dev/mpr121.h **** namespace daisy
  11:../DaisyExamples/libDaisy//src/dev/mpr121.h **** {
  12:../DaisyExamples/libDaisy//src/dev/mpr121.h **** /** @addtogroup external 
  13:../DaisyExamples/libDaisy//src/dev/mpr121.h ****     @{ 
  14:../DaisyExamples/libDaisy//src/dev/mpr121.h **** */
  15:../DaisyExamples/libDaisy//src/dev/mpr121.h **** 
  16:../DaisyExamples/libDaisy//src/dev/mpr121.h **** /** I2C Transport for MPR121 */
  17:../DaisyExamples/libDaisy//src/dev/mpr121.h **** class Mpr121I2CTransport
  18:../DaisyExamples/libDaisy//src/dev/mpr121.h **** {
  19:../DaisyExamples/libDaisy//src/dev/mpr121.h ****   public:
  20:../DaisyExamples/libDaisy//src/dev/mpr121.h ****     Mpr121I2CTransport() {}
  21:../DaisyExamples/libDaisy//src/dev/mpr121.h ****     ~Mpr121I2CTransport() {}
  22:../DaisyExamples/libDaisy//src/dev/mpr121.h **** 
  23:../DaisyExamples/libDaisy//src/dev/mpr121.h ****     struct Config
  24:../DaisyExamples/libDaisy//src/dev/mpr121.h ****     {
  25:../DaisyExamples/libDaisy//src/dev/mpr121.h ****         I2CHandle::Config::Peripheral periph;
  26:../DaisyExamples/libDaisy//src/dev/mpr121.h ****         I2CHandle::Config::Speed      speed;
  27:../DaisyExamples/libDaisy//src/dev/mpr121.h ****         Pin                           scl;
  28:../DaisyExamples/libDaisy//src/dev/mpr121.h ****         Pin                           sda;
  29:../DaisyExamples/libDaisy//src/dev/mpr121.h **** 
  30:../DaisyExamples/libDaisy//src/dev/mpr121.h ****         I2CHandle::Config::Mode mode;
  31:../DaisyExamples/libDaisy//src/dev/mpr121.h **** 
  32:../DaisyExamples/libDaisy//src/dev/mpr121.h ****         uint8_t dev_addr;
  33:../DaisyExamples/libDaisy//src/dev/mpr121.h **** 
  34:../DaisyExamples/libDaisy//src/dev/mpr121.h ****         Config()
  35:../DaisyExamples/libDaisy//src/dev/mpr121.h ****         {
  36:../DaisyExamples/libDaisy//src/dev/mpr121.h ****             periph = I2CHandle::Config::Peripheral::I2C_1;
  37:../DaisyExamples/libDaisy//src/dev/mpr121.h ****             speed  = I2CHandle::Config::Speed::I2C_400KHZ;
  38:../DaisyExamples/libDaisy//src/dev/mpr121.h **** 
  39:../DaisyExamples/libDaisy//src/dev/mpr121.h ****             scl = Pin(PORTB, 8);
ARM GAS  /var/folders/1p/hl98tgf51p19ck4ldyh6xb6c0000gn/T//ccZqo17l.s 			page 13


  40:../DaisyExamples/libDaisy//src/dev/mpr121.h ****             sda = Pin(PORTB, 9);
  41:../DaisyExamples/libDaisy//src/dev/mpr121.h **** 
  42:../DaisyExamples/libDaisy//src/dev/mpr121.h ****             dev_addr = MPR121_I2CADDR_DEFAULT;
  43:../DaisyExamples/libDaisy//src/dev/mpr121.h ****         }
  44:../DaisyExamples/libDaisy//src/dev/mpr121.h ****     };
  45:../DaisyExamples/libDaisy//src/dev/mpr121.h **** 
  46:../DaisyExamples/libDaisy//src/dev/mpr121.h ****     /** \return Did the transaction error? i.e. Return true if error, false if ok */
  47:../DaisyExamples/libDaisy//src/dev/mpr121.h ****     inline bool Init(Config config)
  48:../DaisyExamples/libDaisy//src/dev/mpr121.h ****     {
  49:../DaisyExamples/libDaisy//src/dev/mpr121.h ****         config_ = config;
  50:../DaisyExamples/libDaisy//src/dev/mpr121.h **** 
  51:../DaisyExamples/libDaisy//src/dev/mpr121.h ****         I2CHandle::Config i2c_conf;
  52:../DaisyExamples/libDaisy//src/dev/mpr121.h ****         i2c_conf.mode   = I2CHandle::Config::Mode::I2C_MASTER;
  53:../DaisyExamples/libDaisy//src/dev/mpr121.h ****         i2c_conf.periph = config.periph;
  54:../DaisyExamples/libDaisy//src/dev/mpr121.h ****         i2c_conf.speed  = config.speed;
  55:../DaisyExamples/libDaisy//src/dev/mpr121.h **** 
  56:../DaisyExamples/libDaisy//src/dev/mpr121.h ****         i2c_conf.pin_config.scl = config.scl;
  57:../DaisyExamples/libDaisy//src/dev/mpr121.h ****         i2c_conf.pin_config.sda = config.sda;
  58:../DaisyExamples/libDaisy//src/dev/mpr121.h **** 
  59:../DaisyExamples/libDaisy//src/dev/mpr121.h ****         return I2CHandle::Result::OK != i2c_.Init(i2c_conf);
  60:../DaisyExamples/libDaisy//src/dev/mpr121.h ****     }
  61:../DaisyExamples/libDaisy//src/dev/mpr121.h **** 
  62:../DaisyExamples/libDaisy//src/dev/mpr121.h ****     /** \return Did the transaction error? i.e. Return true if error, false if ok */
  63:../DaisyExamples/libDaisy//src/dev/mpr121.h ****     bool Write(uint8_t *data, uint16_t size)
  64:../DaisyExamples/libDaisy//src/dev/mpr121.h ****     {
  65:../DaisyExamples/libDaisy//src/dev/mpr121.h ****         return I2CHandle::Result::OK
  66:../DaisyExamples/libDaisy//src/dev/mpr121.h ****                != i2c_.TransmitBlocking(config_.dev_addr, data, size, 10);
  67:../DaisyExamples/libDaisy//src/dev/mpr121.h ****     }
  68:../DaisyExamples/libDaisy//src/dev/mpr121.h **** 
  69:../DaisyExamples/libDaisy//src/dev/mpr121.h ****     /** \return Did the transaction error? i.e. Return true if error, false if ok */
  70:../DaisyExamples/libDaisy//src/dev/mpr121.h ****     bool Read(uint8_t *data, uint16_t size)
  71:../DaisyExamples/libDaisy//src/dev/mpr121.h ****     {
  72:../DaisyExamples/libDaisy//src/dev/mpr121.h ****         return I2CHandle::Result::OK
  73:../DaisyExamples/libDaisy//src/dev/mpr121.h ****                != i2c_.ReceiveBlocking(config_.dev_addr, data, size, 10);
  74:../DaisyExamples/libDaisy//src/dev/mpr121.h ****     }
  75:../DaisyExamples/libDaisy//src/dev/mpr121.h **** 
  76:../DaisyExamples/libDaisy//src/dev/mpr121.h ****   private:
  77:../DaisyExamples/libDaisy//src/dev/mpr121.h ****     I2CHandle i2c_;
  78:../DaisyExamples/libDaisy//src/dev/mpr121.h ****     Config    config_;
  79:../DaisyExamples/libDaisy//src/dev/mpr121.h **** };
  80:../DaisyExamples/libDaisy//src/dev/mpr121.h **** 
  81:../DaisyExamples/libDaisy//src/dev/mpr121.h **** 
  82:../DaisyExamples/libDaisy//src/dev/mpr121.h **** /** @brief Device support for MPR121 12x Capacitive Touch Sensor
  83:../DaisyExamples/libDaisy//src/dev/mpr121.h ****     @author beserge
  84:../DaisyExamples/libDaisy//src/dev/mpr121.h ****     @date December 2021
  85:../DaisyExamples/libDaisy//src/dev/mpr121.h **** */
  86:../DaisyExamples/libDaisy//src/dev/mpr121.h **** template <typename Transport>
  87:../DaisyExamples/libDaisy//src/dev/mpr121.h **** class Mpr121
  88:../DaisyExamples/libDaisy//src/dev/mpr121.h **** {
  89:../DaisyExamples/libDaisy//src/dev/mpr121.h ****   public:
  90:../DaisyExamples/libDaisy//src/dev/mpr121.h ****     Mpr121() {}
  91:../DaisyExamples/libDaisy//src/dev/mpr121.h ****     ~Mpr121() {}
 218              		.loc 12 91 5 is_stmt 1 view -0
 219              		.cfi_startproc
 220              		@ args = 0, pretend = 0, frame = 0
 221              		@ frame_needed = 0, uses_anonymous_args = 0
 222              		@ link register save eliminated.
ARM GAS  /var/folders/1p/hl98tgf51p19ck4ldyh6xb6c0000gn/T//ccZqo17l.s 			page 14


 223              	.LBB370:
 224              	.LBI370:
  21:../DaisyExamples/libDaisy//src/dev/mpr121.h **** 
 225              		.loc 12 21 5 view .LVU23
  21:../DaisyExamples/libDaisy//src/dev/mpr121.h **** 
 226              		.loc 12 21 5 is_stmt 0 view .LVU24
 227              	.LBE370:
 228              		.loc 12 91 16 view .LVU25
 229 0000 7047     		bx	lr
 230              		.cfi_endproc
 231              	.LFE5425:
 233              		.weak	_ZN5daisy6Mpr121INS_18Mpr121I2CTransportEED1Ev
 234              		.thumb_set _ZN5daisy6Mpr121INS_18Mpr121I2CTransportEED1Ev,_ZN5daisy6Mpr121INS_18Mpr121I2CTransport
 235 0002 00BF     		.section	.text.__tcf_2,"ax",%progbits
 236              		.align	1
 237              		.p2align 2,,3
 238              		.syntax unified
 239              		.thumb
 240              		.thumb_func
 242              	__tcf_2:
 243              	.LFB5432:
 244              		.cfi_startproc
 245              		@ args = 0, pretend = 0, frame = 0
 246              		@ frame_needed = 0, uses_anonymous_args = 0
 247              		@ link register save eliminated.
 248 0000 7047     		bx	lr
 249              		.cfi_endproc
 250              	.LFE5432:
 252 0002 00BF     		.section	.text.__tcf_3,"ax",%progbits
 253              		.align	1
 254              		.p2align 2,,3
 255              		.syntax unified
 256              		.thumb
 257              		.thumb_func
 259              	__tcf_3:
 260              	.LFB5434:
 261              		.cfi_startproc
 262              		@ args = 0, pretend = 0, frame = 0
 263              		@ frame_needed = 0, uses_anonymous_args = 0
 264              		@ link register save eliminated.
 265 0000 7047     		bx	lr
 266              		.cfi_endproc
 267              	.LFE5434:
 269 0002 00BF     		.section	.text.__tcf_1,"ax",%progbits
 270              		.align	1
 271              		.p2align 2,,3
 272              		.syntax unified
 273              		.thumb
 274              		.thumb_func
 276              	__tcf_1:
 277              	.LFB5430:
 278              		.cfi_startproc
 279              		@ args = 0, pretend = 0, frame = 0
 280              		@ frame_needed = 0, uses_anonymous_args = 0
 281              		@ link register save eliminated.
 282 0000 7047     		bx	lr
 283              		.cfi_endproc
ARM GAS  /var/folders/1p/hl98tgf51p19ck4ldyh6xb6c0000gn/T//ccZqo17l.s 			page 15


 284              	.LFE5430:
 286 0002 00BF     		.section	.text._Z13AudioCallbackPKPKfPPfj,"ax",%progbits
 287              		.align	1
 288              		.p2align 2,,3
 289              		.global	_Z13AudioCallbackPKPKfPPfj
 290              		.syntax unified
 291              		.thumb
 292              		.thumb_func
 294              	_Z13AudioCallbackPKPKfPPfj:
 295              	.LVL7:
 296              	.LFB4830:
  14:source.cpp    **** Mpr121I2C TouchPads;
  15:source.cpp    **** uint16_t touchState;
  16:source.cpp    **** uint16_t touchOutL, touchOutR, lastTL, lastTR;
  17:source.cpp    **** CanonicalFirstOrderFilters allpassTest;
  18:source.cpp    **** WhiteNoise NoiseSource;
  19:source.cpp    **** Svf LowPassTable[NUM_BOWLS], LowpassOut;
  20:source.cpp    **** FilterType fType = Allpass;
  21:source.cpp    **** Oscillator SineWave;
  22:source.cpp    **** BowTable ExciterTable;
  23:source.cpp    **** Adsr simpleEnv[NUM_BOWLS];
  24:source.cpp    **** Line simpleLineL, simpleLineR;
  25:source.cpp    **** Port lPort, rPort;
  26:source.cpp    **** float lAmp, rAmp;
  27:source.cpp    **** 
  28:source.cpp    **** 
  29:source.cpp    **** float bowlFreqs[] = {110.f, 392.f, 492.f, 330.f, 350.6, 117.3f};
  30:source.cpp    **** Switch buttons[NUM_BOWLS];
  31:source.cpp    **** 
  32:source.cpp    **** // Easier to debounce them like this. I'd rather not use a for loop for simple logic like this
  33:source.cpp    **** void debounceButtons() {
  34:source.cpp    ****     buttons[0].Debounce();
  35:source.cpp    ****     buttons[1].Debounce();
  36:source.cpp    ****     buttons[2].Debounce();
  37:source.cpp    ****     buttons[3].Debounce();
  38:source.cpp    ****     buttons[4].Debounce();
  39:source.cpp    ****     buttons[5].Debounce();
  40:source.cpp    **** }
  41:source.cpp    **** 
  42:source.cpp    **** // Init ADSR Use for loop since it is only being used once
  43:source.cpp    **** void setADSR(float SR) {
  44:source.cpp    ****     for (auto &i: simpleEnv) {
  45:source.cpp    ****         i.Init(SR, 1);
  46:source.cpp    ****         i.SetAttackTime(0.125f);
  47:source.cpp    ****         i.SetDecayTime(0.1255f);
  48:source.cpp    ****         i.SetSustainLevel(1.f);
  49:source.cpp    ****         i.SetReleaseTime(0.125f);
  50:source.cpp    ****     }
  51:source.cpp    **** }
  52:source.cpp    **** 
  53:source.cpp    **** void setSustain(u_int16_t sus) {
  54:source.cpp    ****     for (auto &i: simpleEnv) {
  55:source.cpp    ****         i.SetSustainLevel(sus);
  56:source.cpp    ****     }
  57:source.cpp    **** }
  58:source.cpp    **** 
  59:source.cpp    **** 
ARM GAS  /var/folders/1p/hl98tgf51p19ck4ldyh6xb6c0000gn/T//ccZqo17l.s 			page 16


  60:source.cpp    **** void AudioCallback(AudioHandle::InputBuffer in, AudioHandle::OutputBuffer out, size_t size) {
 297              		.loc 11 60 93 is_stmt 1 view -0
 298              		.cfi_startproc
 299              		@ args = 0, pretend = 0, frame = 16
 300              		@ frame_needed = 0, uses_anonymous_args = 0
  61:source.cpp    ****     //Debounce the buttons
  62:source.cpp    ****     debounceButtons();
 301              		.loc 11 62 5 view .LVU27
 302              	.LBB753:
 303              	.LBI753:
  33:source.cpp    ****     buttons[0].Debounce();
 304              		.loc 11 33 6 view .LVU28
 305              	.LBB754:
  34:source.cpp    ****     buttons[1].Debounce();
 306              		.loc 11 34 5 view .LVU29
 307              	.LBE754:
 308              	.LBE753:
  60:source.cpp    ****     //Debounce the buttons
 309              		.loc 11 60 93 is_stmt 0 view .LVU30
 310 0000 2DE9F04F 		push	{r4, r5, r6, r7, r8, r9, r10, fp, lr}
 311              		.cfi_def_cfa_offset 36
 312              		.cfi_offset 4, -36
 313              		.cfi_offset 5, -32
 314              		.cfi_offset 6, -28
 315              		.cfi_offset 7, -24
 316              		.cfi_offset 8, -20
 317              		.cfi_offset 9, -16
 318              		.cfi_offset 10, -12
 319              		.cfi_offset 11, -8
 320              		.cfi_offset 14, -4
 321 0004 2DED0A8B 		vpush.64	{d8, d9, d10, d11, d12}
 322              		.cfi_def_cfa_offset 76
 323              		.cfi_offset 80, -76
 324              		.cfi_offset 81, -72
 325              		.cfi_offset 82, -68
 326              		.cfi_offset 83, -64
 327              		.cfi_offset 84, -60
 328              		.cfi_offset 85, -56
 329              		.cfi_offset 86, -52
 330              		.cfi_offset 87, -48
 331              		.cfi_offset 88, -44
 332              		.cfi_offset 89, -40
 333 0008 85B0     		sub	sp, sp, #20
 334              		.cfi_def_cfa_offset 96
 335              	.LBB757:
 336              	.LBB755:
  34:source.cpp    ****     buttons[1].Debounce();
 337              		.loc 11 34 24 view .LVU31
 338 000a 1F48     		ldr	r0, .L71
 339              	.LVL8:
  34:source.cpp    ****     buttons[1].Debounce();
 340              		.loc 11 34 24 view .LVU32
 341              	.LBE755:
 342              	.LBE757:
  60:source.cpp    ****     //Debounce the buttons
 343              		.loc 11 60 93 view .LVU33
 344 000c 1446     		mov	r4, r2
ARM GAS  /var/folders/1p/hl98tgf51p19ck4ldyh6xb6c0000gn/T//ccZqo17l.s 			page 17


 345 000e 0392     		str	r2, [sp, #12]
 346 0010 0291     		str	r1, [sp, #8]
 347              	.LBB758:
 348              	.LBB756:
  34:source.cpp    ****     buttons[1].Debounce();
 349              		.loc 11 34 24 view .LVU34
 350 0012 FFF7FEFF 		bl	_ZN5daisy6Switch8DebounceEv
 351              	.LVL9:
  35:source.cpp    ****     buttons[2].Debounce();
 352              		.loc 11 35 5 is_stmt 1 view .LVU35
  35:source.cpp    ****     buttons[2].Debounce();
 353              		.loc 11 35 24 is_stmt 0 view .LVU36
 354 0016 1D48     		ldr	r0, .L71+4
 355 0018 FFF7FEFF 		bl	_ZN5daisy6Switch8DebounceEv
 356              	.LVL10:
  36:source.cpp    ****     buttons[3].Debounce();
 357              		.loc 11 36 5 is_stmt 1 view .LVU37
  36:source.cpp    ****     buttons[3].Debounce();
 358              		.loc 11 36 24 is_stmt 0 view .LVU38
 359 001c 1C48     		ldr	r0, .L71+8
 360 001e FFF7FEFF 		bl	_ZN5daisy6Switch8DebounceEv
 361              	.LVL11:
  37:source.cpp    ****     buttons[4].Debounce();
 362              		.loc 11 37 5 is_stmt 1 view .LVU39
  37:source.cpp    ****     buttons[4].Debounce();
 363              		.loc 11 37 24 is_stmt 0 view .LVU40
 364 0022 1C48     		ldr	r0, .L71+12
 365 0024 FFF7FEFF 		bl	_ZN5daisy6Switch8DebounceEv
 366              	.LVL12:
  38:source.cpp    ****     buttons[5].Debounce();
 367              		.loc 11 38 5 is_stmt 1 view .LVU41
  38:source.cpp    ****     buttons[5].Debounce();
 368              		.loc 11 38 24 is_stmt 0 view .LVU42
 369 0028 1B48     		ldr	r0, .L71+16
 370 002a FFF7FEFF 		bl	_ZN5daisy6Switch8DebounceEv
 371              	.LVL13:
  39:source.cpp    **** }
 372              		.loc 11 39 5 is_stmt 1 view .LVU43
  39:source.cpp    **** }
 373              		.loc 11 39 24 is_stmt 0 view .LVU44
 374 002e 1B48     		ldr	r0, .L71+20
 375 0030 FFF7FEFF 		bl	_ZN5daisy6Switch8DebounceEv
 376              	.LVL14:
 377              	.LBE756:
 378              	.LBE758:
  63:source.cpp    **** 
  64:source.cpp    **** 
  65:source.cpp    **** 
  66:source.cpp    **** //    if(lastTL != touchOutL){
  67:source.cpp    **** //        lPort.Process(float (lastTL) * 0.25f, float(touchOutL) * .25f, 0.125f);
  68:source.cpp    **** //    }
  69:source.cpp    **** //
  70:source.cpp    **** //    if(lastTR != touchOutR){
  71:source.cpp    **** //        simpleLineR.Start(float (lastTR) * 0.25f, float(touchOutR) * .25f, 0.125f);
  72:source.cpp    **** //    }
  73:source.cpp    **** //
  74:source.cpp    **** //    lastTL = touchOutL;
ARM GAS  /var/folders/1p/hl98tgf51p19ck4ldyh6xb6c0000gn/T//ccZqo17l.s 			page 18


  75:source.cpp    **** //    lastTR = touchOutR;
  76:source.cpp    **** 
  77:source.cpp    ****     lAmp = float(touchOutL) * .25f;
 379              		.loc 11 77 5 is_stmt 1 view .LVU45
 380              		.loc 11 77 12 is_stmt 0 view .LVU46
 381 0034 1A4A     		ldr	r2, .L71+24
  78:source.cpp    ****     rAmp = float(touchOutR) * .25f;
 382              		.loc 11 78 12 view .LVU47
 383 0036 1B4B     		ldr	r3, .L71+28
  77:source.cpp    ****     rAmp = float(touchOutR) * .25f;
 384              		.loc 11 77 29 view .LVU48
 385 0038 F5EE006A 		vmov.f32	s13, #2.5e-1
  77:source.cpp    ****     rAmp = float(touchOutR) * .25f;
 386              		.loc 11 77 12 view .LVU49
 387 003c 1288     		ldrh	r2, [r2]
 388              		.loc 11 78 12 view .LVU50
 389 003e 1B88     		ldrh	r3, [r3]
  77:source.cpp    ****     rAmp = float(touchOutR) * .25f;
 390              		.loc 11 77 12 view .LVU51
 391 0040 07EE102A 		vmov	s14, r2	@ int
 392              		.loc 11 78 12 view .LVU52
 393 0044 07EE903A 		vmov	s15, r3	@ int
  77:source.cpp    ****     rAmp = float(touchOutR) * .25f;
 394              		.loc 11 77 10 view .LVU53
 395 0048 174B     		ldr	r3, .L71+32
  77:source.cpp    ****     rAmp = float(touchOutR) * .25f;
 396              		.loc 11 77 12 view .LVU54
 397 004a B8EE477A 		vcvt.f32.u32	s14, s14
 398              		.loc 11 78 12 view .LVU55
 399 004e F8EE677A 		vcvt.f32.u32	s15, s15
  77:source.cpp    ****     rAmp = float(touchOutR) * .25f;
 400              		.loc 11 77 29 view .LVU56
 401 0052 27EE267A 		vmul.f32	s14, s14, s13
 402              		.loc 11 78 29 view .LVU57
 403 0056 67EEA67A 		vmul.f32	s15, s15, s13
  77:source.cpp    ****     rAmp = float(touchOutR) * .25f;
 404              		.loc 11 77 10 view .LVU58
 405 005a 83ED007A 		vstr.32	s14, [r3]
 406              		.loc 11 78 5 is_stmt 1 view .LVU59
 407              		.loc 11 78 10 is_stmt 0 view .LVU60
 408 005e 134B     		ldr	r3, .L71+36
 409 0060 C3ED007A 		vstr.32	s15, [r3]
  79:source.cpp    **** 
  80:source.cpp    **** 
  81:source.cpp    **** 
  82:source.cpp    **** //    for (int i = 0; i < 16; i++) {
  83:source.cpp    **** //        if((touchState & 0x8000) >> 15 == 1){
  84:source.cpp    **** //            touchOut = i + 1;
  85:source.cpp    **** //        }
  86:source.cpp    **** //        touchState <<= 1;
  87:source.cpp    **** //    }
  88:source.cpp    **** 
  89:source.cpp    ****     for (size_t i = 0; i < size; i++) {
 410              		.loc 11 89 5 is_stmt 1 view .LVU61
 411              	.LVL15:
 412              	.LBB759:
 413              		.loc 11 89 26 view .LVU62
ARM GAS  /var/folders/1p/hl98tgf51p19ck4ldyh6xb6c0000gn/T//ccZqo17l.s 			page 19


 414 0064 002C     		cmp	r4, #0
 415 0066 01F0CA87 		beq	.L13
 416 006a 114E     		ldr	r6, .L71+40
 417              		.loc 11 89 17 is_stmt 0 view .LVU63
 418 006c 0023     		movs	r3, #0
 419 006e 06F51049 		add	r9, r6, #36864
 420 0072 06F57048 		add	r8, r6, #61440
 421 0076 06F5A837 		add	r7, r6, #86016
 422 007a 06F57835 		add	r5, r6, #253952
 423 007e 06F58824 		add	r4, r6, #278528
 424              	.LVL16:
 425              		.loc 11 89 17 view .LVU64
 426 0082 0093     		str	r3, [sp]
 427 0084 01F04BBE 		b	.L14
 428              	.L72:
 429              		.align	2
 430              	.L71:
 431 0088 00000000 		.word	.LANCHOR0
 432 008c 10000000 		.word	.LANCHOR0+16
 433 0090 20000000 		.word	.LANCHOR0+32
 434 0094 30000000 		.word	.LANCHOR0+48
 435 0098 40000000 		.word	.LANCHOR0+64
 436 009c 50000000 		.word	.LANCHOR0+80
 437 00a0 00000000 		.word	.LANCHOR2
 438 00a4 00000000 		.word	.LANCHOR4
 439 00a8 00000000 		.word	.LANCHOR1
 440 00ac 00000000 		.word	.LANCHOR3
 441 00b0 00000000 		.word	Bowls
 442 00b4 90C2753D 		.word	1031127696
 443 00b8 6666663F 		.word	1063675494
 444              	.LVL17:
 445              	.L70:
 446              	.LBB760:
 447              	.LBB761:
 448              	.LBB762:
 449              	.LBB763:
 450              	.LBB764:
 451              	.LBB765:
 452              	.LBB766:
 453              		.file 13 "singingbowl.h"
   1:singingbowl.h **** //
   2:singingbowl.h **** // Created by Holland Sersen on 12/30/23.
   3:singingbowl.h **** //
   4:singingbowl.h **** 
   5:singingbowl.h **** #ifndef SOURCE_SINGINGBOWL_H
   6:singingbowl.h **** #define SOURCE_SINGINGBOWL_H
   7:singingbowl.h **** #include "daisysp.h"
   8:singingbowl.h **** #include <cmath>
   9:singingbowl.h **** #include "CanonicalFirstOrderFilters.h"
  10:singingbowl.h **** 
  11:singingbowl.h **** using namespace daisy;
  12:singingbowl.h **** using namespace daisysp;
  13:singingbowl.h **** 
  14:singingbowl.h **** float friction_curve(float staticFriction, float dynamicFriction, float initialVelocity, float rela
  15:singingbowl.h ****     float totalVelocity = (initialVelocity + relativeVelocity);
  16:singingbowl.h ****     if (totalVelocity == 0)
  17:singingbowl.h ****         return 0;
ARM GAS  /var/folders/1p/hl98tgf51p19ck4ldyh6xb6c0000gn/T//ccZqo17l.s 			page 20


  18:singingbowl.h ****     else
  19:singingbowl.h ****         return (dynamicFriction + ((staticFriction - dynamicFriction) * initialVelocity) / totalVel
 454              		.loc 13 19 9 is_stmt 1 view .LVU65
 455              		.loc 13 19 71 is_stmt 0 view .LVU66
 456 00bc 5FED037A 		vldr.32	s15, .L71+44
 457              		.loc 13 19 105 view .LVU67
 458 00c0 5FED034A 		vldr.32	s9, .L71+48
 459              	.LVL18:
 460              		.loc 13 19 71 view .LVU68
 461 00c4 26EE276A 		vmul.f32	s12, s12, s15
 462              	.LVL19:
 463              		.loc 13 19 90 view .LVU69
 464 00c8 C6EE057A 		vdiv.f32	s15, s12, s10
 465              		.loc 13 19 105 view .LVU70
 466 00cc 77EEA47A 		vadd.f32	s15, s15, s9
 467              	.L18:
 468              	.LVL20:
 469              		.loc 13 19 105 view .LVU71
 470              	.LBE766:
 471              	.LBE765:
 472              	.LBE764:
 473              	.LBE763:
 474              	.LBB850:
 475              	.LBB851:
 476              	.LBB852:
 477              	.LBB853:
 478              		.file 14 "../DaisyExamples/DaisySP//Source/Utility/delayline.h"
   1:../DaisyExamples/DaisySP//Source/Utility/delayline.h **** #pragma once
   2:../DaisyExamples/DaisySP//Source/Utility/delayline.h **** #ifndef DSY_DELAY_H
   3:../DaisyExamples/DaisySP//Source/Utility/delayline.h **** #define DSY_DELAY_H
   4:../DaisyExamples/DaisySP//Source/Utility/delayline.h **** #include <stdlib.h>
   5:../DaisyExamples/DaisySP//Source/Utility/delayline.h **** #include <stdint.h>
   6:../DaisyExamples/DaisySP//Source/Utility/delayline.h **** namespace daisysp
   7:../DaisyExamples/DaisySP//Source/Utility/delayline.h **** {
   8:../DaisyExamples/DaisySP//Source/Utility/delayline.h **** /** Simple Delay line.
   9:../DaisyExamples/DaisySP//Source/Utility/delayline.h **** November 2019
  10:../DaisyExamples/DaisySP//Source/Utility/delayline.h **** 
  11:../DaisyExamples/DaisySP//Source/Utility/delayline.h **** Converted to Template December 2019
  12:../DaisyExamples/DaisySP//Source/Utility/delayline.h **** 
  13:../DaisyExamples/DaisySP//Source/Utility/delayline.h **** declaration example: (1 second of floats)
  14:../DaisyExamples/DaisySP//Source/Utility/delayline.h **** 
  15:../DaisyExamples/DaisySP//Source/Utility/delayline.h **** DelayLine<float, SAMPLE_RATE> del;
  16:../DaisyExamples/DaisySP//Source/Utility/delayline.h **** 
  17:../DaisyExamples/DaisySP//Source/Utility/delayline.h **** By: shensley
  18:../DaisyExamples/DaisySP//Source/Utility/delayline.h **** */
  19:../DaisyExamples/DaisySP//Source/Utility/delayline.h **** template <typename T, size_t max_size>
  20:../DaisyExamples/DaisySP//Source/Utility/delayline.h **** class DelayLine
  21:../DaisyExamples/DaisySP//Source/Utility/delayline.h **** {
  22:../DaisyExamples/DaisySP//Source/Utility/delayline.h ****   public:
  23:../DaisyExamples/DaisySP//Source/Utility/delayline.h ****     DelayLine() {}
  24:../DaisyExamples/DaisySP//Source/Utility/delayline.h ****     ~DelayLine() {}
  25:../DaisyExamples/DaisySP//Source/Utility/delayline.h ****     /** initializes the delay line by clearing the values within, and setting delay to 1 sample.
  26:../DaisyExamples/DaisySP//Source/Utility/delayline.h ****     */
  27:../DaisyExamples/DaisySP//Source/Utility/delayline.h ****     void Init() { Reset(); }
  28:../DaisyExamples/DaisySP//Source/Utility/delayline.h ****     /** clears buffer, sets write ptr to 0, and delay to 1 sample.
  29:../DaisyExamples/DaisySP//Source/Utility/delayline.h ****     */
  30:../DaisyExamples/DaisySP//Source/Utility/delayline.h ****     void Reset()
ARM GAS  /var/folders/1p/hl98tgf51p19ck4ldyh6xb6c0000gn/T//ccZqo17l.s 			page 21


  31:../DaisyExamples/DaisySP//Source/Utility/delayline.h ****     {
  32:../DaisyExamples/DaisySP//Source/Utility/delayline.h ****         for(size_t i = 0; i < max_size; i++)
  33:../DaisyExamples/DaisySP//Source/Utility/delayline.h ****         {
  34:../DaisyExamples/DaisySP//Source/Utility/delayline.h ****             line_[i] = T(0);
  35:../DaisyExamples/DaisySP//Source/Utility/delayline.h ****         }
  36:../DaisyExamples/DaisySP//Source/Utility/delayline.h ****         write_ptr_ = 0;
  37:../DaisyExamples/DaisySP//Source/Utility/delayline.h ****         delay_     = 1;
  38:../DaisyExamples/DaisySP//Source/Utility/delayline.h ****     }
  39:../DaisyExamples/DaisySP//Source/Utility/delayline.h **** 
  40:../DaisyExamples/DaisySP//Source/Utility/delayline.h ****     /** sets the delay time in samples
  41:../DaisyExamples/DaisySP//Source/Utility/delayline.h ****         If a float is passed in, a fractional component will be calculated for interpolating the de
  42:../DaisyExamples/DaisySP//Source/Utility/delayline.h ****     */
  43:../DaisyExamples/DaisySP//Source/Utility/delayline.h ****     inline void SetDelay(size_t delay)
  44:../DaisyExamples/DaisySP//Source/Utility/delayline.h ****     {
  45:../DaisyExamples/DaisySP//Source/Utility/delayline.h ****         frac_  = 0.0f;
  46:../DaisyExamples/DaisySP//Source/Utility/delayline.h ****         delay_ = delay < max_size ? delay : max_size - 1;
  47:../DaisyExamples/DaisySP//Source/Utility/delayline.h ****     }
  48:../DaisyExamples/DaisySP//Source/Utility/delayline.h **** 
  49:../DaisyExamples/DaisySP//Source/Utility/delayline.h ****     /** sets the delay time in samples
  50:../DaisyExamples/DaisySP//Source/Utility/delayline.h ****         If a float is passed in, a fractional component will be calculated for interpolating the de
  51:../DaisyExamples/DaisySP//Source/Utility/delayline.h ****     */
  52:../DaisyExamples/DaisySP//Source/Utility/delayline.h ****     inline void SetDelay(float delay)
  53:../DaisyExamples/DaisySP//Source/Utility/delayline.h ****     {
  54:../DaisyExamples/DaisySP//Source/Utility/delayline.h ****         int32_t int_delay = static_cast<int32_t>(delay);
  55:../DaisyExamples/DaisySP//Source/Utility/delayline.h ****         frac_             = delay - static_cast<float>(int_delay);
  56:../DaisyExamples/DaisySP//Source/Utility/delayline.h ****         delay_ = static_cast<size_t>(int_delay) < max_size ? int_delay
  57:../DaisyExamples/DaisySP//Source/Utility/delayline.h ****                                                            : max_size - 1;
  58:../DaisyExamples/DaisySP//Source/Utility/delayline.h ****     }
  59:../DaisyExamples/DaisySP//Source/Utility/delayline.h **** 
  60:../DaisyExamples/DaisySP//Source/Utility/delayline.h ****     /** writes the sample of type T to the delay line, and advances the write ptr
  61:../DaisyExamples/DaisySP//Source/Utility/delayline.h ****     */
  62:../DaisyExamples/DaisySP//Source/Utility/delayline.h ****     inline void Write(const T sample)
  63:../DaisyExamples/DaisySP//Source/Utility/delayline.h ****     {
  64:../DaisyExamples/DaisySP//Source/Utility/delayline.h ****         line_[write_ptr_] = sample;
 479              		.loc 14 64 15 view .LVU72
 480 00d0 F24B     		ldr	r3, .L73
 481              	.LBE853:
 482              	.LBE852:
 483              	.LBE851:
 484              	.LBE850:
 485              	.LBB959:
 486              	.LBB845:
  20:singingbowl.h **** }
  21:singingbowl.h **** 
  22:singingbowl.h **** template <typename T, size_t max_size>
  23:singingbowl.h **** class FractionalDelay  {
  24:singingbowl.h ****     float delayLength = 0.0f;
  25:singingbowl.h ****     float M = 0.0f;
  26:singingbowl.h ****     float frac = 0.0f;
  27:singingbowl.h **** 
  28:singingbowl.h **** public:
  29:singingbowl.h ****     void Init(){
  30:singingbowl.h **** 
  31:singingbowl.h ****     }
  32:singingbowl.h **** };
  33:singingbowl.h **** 
  34:singingbowl.h **** class ResonantBandpass{
ARM GAS  /var/folders/1p/hl98tgf51p19ck4ldyh6xb6c0000gn/T//ccZqo17l.s 			page 22


  35:singingbowl.h ****     float sampleRate;
  36:singingbowl.h ****     float frequency;
  37:singingbowl.h ****     float bandWidth;
  38:singingbowl.h **** 
  39:singingbowl.h ****     //Coefficeints
  40:singingbowl.h ****     float b_ = 0.f;
  41:singingbowl.h ****     float a1_ = 0.f;
  42:singingbowl.h ****     float a2_ = 0.f;
  43:singingbowl.h **** 
  44:singingbowl.h ****     // Last Inputs and Outputs
  45:singingbowl.h ****     float x1_ = 0.f;
  46:singingbowl.h ****     float x2_ = 0.f;
  47:singingbowl.h ****     float y1_ = 0.f;
  48:singingbowl.h ****     float y2_= 0.f;
  49:singingbowl.h **** 
  50:singingbowl.h ****     //Calculate Filter Coefficients Here
  51:singingbowl.h ****     void CalculateCoefficients() {
  52:singingbowl.h ****         const float R = 1.0f - (bandWidth / 2);
  53:singingbowl.h ****         const float omega = std::cos(frequency);
  54:singingbowl.h ****         //const float w = 2 * PI_F * frequency;
  55:singingbowl.h ****         const float theta = ((2 * R) / (1 + R * R)) * omega;
  56:singingbowl.h **** 
  57:singingbowl.h ****         //Set Direct Form Filter Values
  58:singingbowl.h ****         b_ = 2 * R * theta;
  59:singingbowl.h ****         a1_ = R * R;
  60:singingbowl.h ****         a2_ = R;
  61:singingbowl.h ****     }
  62:singingbowl.h **** 
  63:singingbowl.h **** public:
  64:singingbowl.h ****     void Init(float Fs, float Freq, float Bandwidth){
  65:singingbowl.h ****         this->sampleRate = Fs;
  66:singingbowl.h ****         this->frequency = Freq;
  67:singingbowl.h ****         this->bandWidth = Bandwidth;
  68:singingbowl.h ****     }
  69:singingbowl.h **** 
  70:singingbowl.h ****     //Set Feq of Filter
  71:singingbowl.h ****     void SetFreq(float Freq){this->frequency = Freq;  CalculateCoefficients();}
  72:singingbowl.h **** 
  73:singingbowl.h ****     // Set Badnwdith of Filter
  74:singingbowl.h ****     void SetBandwidth(float BandWidth){this->bandWidth = BandWidth; CalculateCoefficients();}
  75:singingbowl.h **** 
  76:singingbowl.h ****     // Second Order Resonant Bandpass Filter
  77:singingbowl.h ****     float Process(float input){
  78:singingbowl.h ****         float output = b_ * y1_ - a1_ * y2_ - a2_ * x2_ + input;
  79:singingbowl.h **** 
  80:singingbowl.h ****         //Set Last Input Values
  81:singingbowl.h ****         x2_ = x1_;
  82:singingbowl.h ****         x1_ = input;
  83:singingbowl.h **** 
  84:singingbowl.h ****         //Set Feedback Values
  85:singingbowl.h ****         y2_ = y1_;
  86:singingbowl.h ****         y1_ = output;
  87:singingbowl.h **** 
  88:singingbowl.h ****         return output;
  89:singingbowl.h ****     }
  90:singingbowl.h **** };
  91:singingbowl.h **** 
ARM GAS  /var/folders/1p/hl98tgf51p19ck4ldyh6xb6c0000gn/T//ccZqo17l.s 			page 23


  92:singingbowl.h **** 
  93:singingbowl.h **** class TunedWaveGuide {
  94:singingbowl.h ****     float sampleRate;
  95:singingbowl.h ****     float frequency;
  96:singingbowl.h ****     float couplingValue = 0.98f;
  97:singingbowl.h ****     float feedback = 0.0f;
  98:singingbowl.h ****     float waveSpeed = 0.0f;
  99:singingbowl.h **** 
 100:singingbowl.h ****     //Delay Line for Feedback
 101:singingbowl.h ****     //It shouldn't go over 1500 unless you go lower than 30hz
 102:singingbowl.h ****     daisysp::DelayLine<float, 1500> delayLine;
 103:singingbowl.h **** 
 104:singingbowl.h ****     //Band pass filter
 105:singingbowl.h ****     ResonantBandpass resFilt;
 106:singingbowl.h **** 
 107:singingbowl.h ****     CanonicalFirstOrderFilters allpass;
 108:singingbowl.h **** 
 109:singingbowl.h ****     Svf lowpass;
 110:singingbowl.h **** public:
 111:singingbowl.h **** 
 112:singingbowl.h ****     void setFreq(float Freq){this->frequency = Freq;
 113:singingbowl.h ****         resFilt.SetFreq(frequency);
 114:singingbowl.h ****         delayLine.SetDelay(sampleRate / frequency);
 115:singingbowl.h ****         lowpass.SetFreq(Freq);
 116:singingbowl.h ****     }
 117:singingbowl.h **** 
 118:singingbowl.h ****     void setCoupling(float Couple){this->couplingValue = Couple;}
 119:singingbowl.h **** 
 120:singingbowl.h **** 
 121:singingbowl.h ****     void Init(float Fs, float Freq){
 122:singingbowl.h ****         this->sampleRate = Fs;
 123:singingbowl.h ****         this->frequency = Freq;
 124:singingbowl.h ****         this->waveSpeed = 343000.0f / this->sampleRate;
 125:singingbowl.h **** 
 126:singingbowl.h ****         FilterType tempType = Allpass;
 127:singingbowl.h **** 
 128:singingbowl.h ****         //Init Objects
 129:singingbowl.h ****         resFilt.Init(Fs, Freq, 2);
 130:singingbowl.h ****         lowpass.Init(Fs);
 131:singingbowl.h ****         lowpass.SetFreq(Freq);
 132:singingbowl.h ****         allpass.Init(Fs, tempType, frequency, 2);
 133:singingbowl.h ****         delayLine.Init();
 134:singingbowl.h ****         delayLine.SetDelay(sampleRate / frequency);
 135:singingbowl.h ****     }
 136:singingbowl.h **** 
 137:singingbowl.h ****     float Process(float input){
 138:singingbowl.h ****         // Mix Source with Feedback
 139:singingbowl.h **** //        lowpass.Process(input);
 140:singingbowl.h **** //        const float newInput = lowpass.Low();
 141:singingbowl.h **** 
 142:singingbowl.h ****         const float source = input + feedback;
 143:singingbowl.h **** 
 144:singingbowl.h ****         // Get the Allpass output from Input
 145:singingbowl.h ****         //const float allpassOut = allpass.Process(source);
 146:singingbowl.h **** 
 147:singingbowl.h ****         // Calculate BandPass Out
 148:singingbowl.h ****         float bandpassOut = resFilt.Process(source);
ARM GAS  /var/folders/1p/hl98tgf51p19ck4ldyh6xb6c0000gn/T//ccZqo17l.s 			page 24


 149:singingbowl.h **** 
 150:singingbowl.h ****         // Write Bandpass to Delay Line
 151:singingbowl.h ****         delayLine.Write(bandpassOut);
 152:singingbowl.h **** 
 153:singingbowl.h ****         //Get Output from delay line
 154:singingbowl.h ****         float output = delayLine.Read();
 155:singingbowl.h **** 
 156:singingbowl.h ****         // TODO: Fix this. Currently the friction properties sound like a bow on a bowl and is stil
 157:singingbowl.h ****         couplingValue = friction_curve(0.96f, 0.9f, abs(input) * waveSpeed, abs(input + output) * w
 158:singingbowl.h **** 
 159:singingbowl.h ****         // Calculate feedback output
 160:singingbowl.h ****         feedback = output * couplingValue;
 487              		.loc 13 160 27 view .LVU73
 488 00d2 27EEA65A 		vmul.f32	s10, s15, s13
 157:singingbowl.h **** 
 489              		.loc 13 157 23 view .LVU74
 490 00d6 C6ED057A 		vstr.32	s15, [r6, #20]
 491              		.loc 13 160 9 is_stmt 1 view .LVU75
 492              	.LBE845:
 493              	.LBE959:
 494              	.LBB960:
 495              	.LBB950:
 496              	.LBB868:
 497              	.LBB869:
 498              		.file 15 "/Applications/ARM/arm-none-eabi/include/c++/10.3.1/bits/std_abs.h"
   1:/Applications/ARM/arm-none-eabi/include/c++/10.3.1/bits/std_abs.h **** // -*- C++ -*- C library enhancements header.
   2:/Applications/ARM/arm-none-eabi/include/c++/10.3.1/bits/std_abs.h **** 
   3:/Applications/ARM/arm-none-eabi/include/c++/10.3.1/bits/std_abs.h **** // Copyright (C) 2016-2020 Free Software Foundation, Inc.
   4:/Applications/ARM/arm-none-eabi/include/c++/10.3.1/bits/std_abs.h **** //
   5:/Applications/ARM/arm-none-eabi/include/c++/10.3.1/bits/std_abs.h **** // This file is part of the GNU ISO C++ Library.  This library is free
   6:/Applications/ARM/arm-none-eabi/include/c++/10.3.1/bits/std_abs.h **** // software; you can redistribute it and/or modify it under the
   7:/Applications/ARM/arm-none-eabi/include/c++/10.3.1/bits/std_abs.h **** // terms of the GNU General Public License as published by the
   8:/Applications/ARM/arm-none-eabi/include/c++/10.3.1/bits/std_abs.h **** // Free Software Foundation; either version 3, or (at your option)
   9:/Applications/ARM/arm-none-eabi/include/c++/10.3.1/bits/std_abs.h **** // any later version.
  10:/Applications/ARM/arm-none-eabi/include/c++/10.3.1/bits/std_abs.h **** 
  11:/Applications/ARM/arm-none-eabi/include/c++/10.3.1/bits/std_abs.h **** // This library is distributed in the hope that it will be useful,
  12:/Applications/ARM/arm-none-eabi/include/c++/10.3.1/bits/std_abs.h **** // but WITHOUT ANY WARRANTY; without even the implied warranty of
  13:/Applications/ARM/arm-none-eabi/include/c++/10.3.1/bits/std_abs.h **** // MERCHANTABILITY or FITNESS FOR A PARTICULAR PURPOSE.  See the
  14:/Applications/ARM/arm-none-eabi/include/c++/10.3.1/bits/std_abs.h **** // GNU General Public License for more details.
  15:/Applications/ARM/arm-none-eabi/include/c++/10.3.1/bits/std_abs.h **** 
  16:/Applications/ARM/arm-none-eabi/include/c++/10.3.1/bits/std_abs.h **** // Under Section 7 of GPL version 3, you are granted additional
  17:/Applications/ARM/arm-none-eabi/include/c++/10.3.1/bits/std_abs.h **** // permissions described in the GCC Runtime Library Exception, version
  18:/Applications/ARM/arm-none-eabi/include/c++/10.3.1/bits/std_abs.h **** // 3.1, as published by the Free Software Foundation.
  19:/Applications/ARM/arm-none-eabi/include/c++/10.3.1/bits/std_abs.h **** 
  20:/Applications/ARM/arm-none-eabi/include/c++/10.3.1/bits/std_abs.h **** // You should have received a copy of the GNU General Public License and
  21:/Applications/ARM/arm-none-eabi/include/c++/10.3.1/bits/std_abs.h **** // a copy of the GCC Runtime Library Exception along with this program;
  22:/Applications/ARM/arm-none-eabi/include/c++/10.3.1/bits/std_abs.h **** // see the files COPYING3 and COPYING.RUNTIME respectively.  If not, see
  23:/Applications/ARM/arm-none-eabi/include/c++/10.3.1/bits/std_abs.h **** // <http://www.gnu.org/licenses/>.
  24:/Applications/ARM/arm-none-eabi/include/c++/10.3.1/bits/std_abs.h **** 
  25:/Applications/ARM/arm-none-eabi/include/c++/10.3.1/bits/std_abs.h **** /** @file include/bits/std_abs.h
  26:/Applications/ARM/arm-none-eabi/include/c++/10.3.1/bits/std_abs.h ****  *  This is an internal header file, included by other library headers.
  27:/Applications/ARM/arm-none-eabi/include/c++/10.3.1/bits/std_abs.h ****  *  Do not attempt to use it directly. @headername{cmath, cstdlib}
  28:/Applications/ARM/arm-none-eabi/include/c++/10.3.1/bits/std_abs.h ****  */
  29:/Applications/ARM/arm-none-eabi/include/c++/10.3.1/bits/std_abs.h **** 
  30:/Applications/ARM/arm-none-eabi/include/c++/10.3.1/bits/std_abs.h **** #ifndef _GLIBCXX_BITS_STD_ABS_H
  31:/Applications/ARM/arm-none-eabi/include/c++/10.3.1/bits/std_abs.h **** #define _GLIBCXX_BITS_STD_ABS_H
  32:/Applications/ARM/arm-none-eabi/include/c++/10.3.1/bits/std_abs.h **** 
ARM GAS  /var/folders/1p/hl98tgf51p19ck4ldyh6xb6c0000gn/T//ccZqo17l.s 			page 25


  33:/Applications/ARM/arm-none-eabi/include/c++/10.3.1/bits/std_abs.h **** #pragma GCC system_header
  34:/Applications/ARM/arm-none-eabi/include/c++/10.3.1/bits/std_abs.h **** 
  35:/Applications/ARM/arm-none-eabi/include/c++/10.3.1/bits/std_abs.h **** #include <bits/c++config.h>
  36:/Applications/ARM/arm-none-eabi/include/c++/10.3.1/bits/std_abs.h **** 
  37:/Applications/ARM/arm-none-eabi/include/c++/10.3.1/bits/std_abs.h **** #define _GLIBCXX_INCLUDE_NEXT_C_HEADERS
  38:/Applications/ARM/arm-none-eabi/include/c++/10.3.1/bits/std_abs.h **** #include_next <stdlib.h>
  39:/Applications/ARM/arm-none-eabi/include/c++/10.3.1/bits/std_abs.h **** #ifdef __CORRECT_ISO_CPP_MATH_H_PROTO
  40:/Applications/ARM/arm-none-eabi/include/c++/10.3.1/bits/std_abs.h **** # include_next <math.h>
  41:/Applications/ARM/arm-none-eabi/include/c++/10.3.1/bits/std_abs.h **** #endif
  42:/Applications/ARM/arm-none-eabi/include/c++/10.3.1/bits/std_abs.h **** #undef _GLIBCXX_INCLUDE_NEXT_C_HEADERS
  43:/Applications/ARM/arm-none-eabi/include/c++/10.3.1/bits/std_abs.h **** 
  44:/Applications/ARM/arm-none-eabi/include/c++/10.3.1/bits/std_abs.h **** #undef abs
  45:/Applications/ARM/arm-none-eabi/include/c++/10.3.1/bits/std_abs.h **** 
  46:/Applications/ARM/arm-none-eabi/include/c++/10.3.1/bits/std_abs.h **** extern "C++"
  47:/Applications/ARM/arm-none-eabi/include/c++/10.3.1/bits/std_abs.h **** {
  48:/Applications/ARM/arm-none-eabi/include/c++/10.3.1/bits/std_abs.h **** namespace std _GLIBCXX_VISIBILITY(default)
  49:/Applications/ARM/arm-none-eabi/include/c++/10.3.1/bits/std_abs.h **** {
  50:/Applications/ARM/arm-none-eabi/include/c++/10.3.1/bits/std_abs.h **** _GLIBCXX_BEGIN_NAMESPACE_VERSION
  51:/Applications/ARM/arm-none-eabi/include/c++/10.3.1/bits/std_abs.h **** 
  52:/Applications/ARM/arm-none-eabi/include/c++/10.3.1/bits/std_abs.h ****   using ::abs;
  53:/Applications/ARM/arm-none-eabi/include/c++/10.3.1/bits/std_abs.h **** 
  54:/Applications/ARM/arm-none-eabi/include/c++/10.3.1/bits/std_abs.h **** #ifndef __CORRECT_ISO_CPP_STDLIB_H_PROTO
  55:/Applications/ARM/arm-none-eabi/include/c++/10.3.1/bits/std_abs.h ****   inline long
  56:/Applications/ARM/arm-none-eabi/include/c++/10.3.1/bits/std_abs.h ****   abs(long __i) { return __builtin_labs(__i); }
  57:/Applications/ARM/arm-none-eabi/include/c++/10.3.1/bits/std_abs.h **** #endif
  58:/Applications/ARM/arm-none-eabi/include/c++/10.3.1/bits/std_abs.h **** 
  59:/Applications/ARM/arm-none-eabi/include/c++/10.3.1/bits/std_abs.h **** #ifdef _GLIBCXX_USE_LONG_LONG
  60:/Applications/ARM/arm-none-eabi/include/c++/10.3.1/bits/std_abs.h ****   inline long long
  61:/Applications/ARM/arm-none-eabi/include/c++/10.3.1/bits/std_abs.h ****   abs(long long __x) { return __builtin_llabs (__x); }
  62:/Applications/ARM/arm-none-eabi/include/c++/10.3.1/bits/std_abs.h **** #endif
  63:/Applications/ARM/arm-none-eabi/include/c++/10.3.1/bits/std_abs.h **** 
  64:/Applications/ARM/arm-none-eabi/include/c++/10.3.1/bits/std_abs.h **** // _GLIBCXX_RESOLVE_LIB_DEFECTS
  65:/Applications/ARM/arm-none-eabi/include/c++/10.3.1/bits/std_abs.h **** // 2192. Validity and return type of std::abs(0u) is unclear
  66:/Applications/ARM/arm-none-eabi/include/c++/10.3.1/bits/std_abs.h **** // 2294. <cstdlib> should declare abs(double)
  67:/Applications/ARM/arm-none-eabi/include/c++/10.3.1/bits/std_abs.h **** // 2735. std::abs(short), std::abs(signed char) and others should return int
  68:/Applications/ARM/arm-none-eabi/include/c++/10.3.1/bits/std_abs.h **** 
  69:/Applications/ARM/arm-none-eabi/include/c++/10.3.1/bits/std_abs.h **** #ifndef __CORRECT_ISO_CPP_MATH_H_PROTO
  70:/Applications/ARM/arm-none-eabi/include/c++/10.3.1/bits/std_abs.h ****   inline _GLIBCXX_CONSTEXPR double
  71:/Applications/ARM/arm-none-eabi/include/c++/10.3.1/bits/std_abs.h ****   abs(double __x)
  72:/Applications/ARM/arm-none-eabi/include/c++/10.3.1/bits/std_abs.h ****   { return __builtin_fabs(__x); }
  73:/Applications/ARM/arm-none-eabi/include/c++/10.3.1/bits/std_abs.h **** 
  74:/Applications/ARM/arm-none-eabi/include/c++/10.3.1/bits/std_abs.h ****   inline _GLIBCXX_CONSTEXPR float
  75:/Applications/ARM/arm-none-eabi/include/c++/10.3.1/bits/std_abs.h ****   abs(float __x)
  76:/Applications/ARM/arm-none-eabi/include/c++/10.3.1/bits/std_abs.h ****   { return __builtin_fabsf(__x); }
 499              		.loc 15 76 31 is_stmt 0 view .LVU76
 500 00da B0EEE66A 		vabs.f32	s12, s13
 501              	.LBE869:
 502              	.LBE868:
 503              	.LBB871:
 504              	.LBB872:
  78:singingbowl.h **** 
 505              		.loc 13 78 41 view .LVU77
 506 00de 03F58050 		add	r0, r3, #4096
 507              	.LBE872:
 508              	.LBE871:
 509              	.LBB888:
 510              	.LBB854:
ARM GAS  /var/folders/1p/hl98tgf51p19ck4ldyh6xb6c0000gn/T//ccZqo17l.s 			page 26


 511              		.loc 14 64 15 view .LVU78
 512 00e2 D3F85C18 		ldr	r1, [r3, #2140]
 513              	.LBE854:
 514              	.LBE888:
 515              	.LBE950:
 516              	.LBE960:
 517              	.LBB961:
 518              	.LBB846:
 519              		.loc 13 160 18 view .LVU79
 520 00e6 86ED065A 		vstr.32	s10, [r6, #24]
 161:singingbowl.h **** 
 162:singingbowl.h ****         return output;
 521              		.loc 13 162 9 is_stmt 1 view .LVU80
 522              	.LVL21:
 523              		.loc 13 162 9 is_stmt 0 view .LVU81
 524              	.LBE846:
 525              	.LBE961:
 163:singingbowl.h ****     }
 164:singingbowl.h **** };
 165:singingbowl.h **** 
 166:singingbowl.h **** class SingingBowl {
 167:singingbowl.h **** // Init Values
 168:singingbowl.h ****     float sampleRate = 0.0f;
 169:singingbowl.h ****     float frequency = 0.0f;
 170:singingbowl.h ****     float beats = 0.0f;
 171:singingbowl.h **** 
 172:singingbowl.h ****     // Init the tuned waveguides
 173:singingbowl.h ****     TunedWaveGuide under_modals[4], over_modals[4];
 174:singingbowl.h **** 
 175:singingbowl.h **** public:
 176:singingbowl.h ****     void inline Init(float Fs, float Freq, float Beats){
 177:singingbowl.h ****         this->sampleRate = Fs;
 178:singingbowl.h ****         this->frequency = Freq;
 179:singingbowl.h ****         this->beats = Beats;
 180:singingbowl.h **** 
 181:singingbowl.h ****         // Init Modals
 182:singingbowl.h ****         for (int i = 0; i < 3; i++) {
 183:singingbowl.h ****             under_modals[i].Init(this->sampleRate, Freq + Beats);
 184:singingbowl.h ****             over_modals[i].Init(this->sampleRate, Freq - Beats);
 185:singingbowl.h ****         }
 186:singingbowl.h ****     }
 187:singingbowl.h **** 
 188:singingbowl.h ****     void inline setFreqs(float Freq, float Beats){
 189:singingbowl.h ****         this->frequency = Freq;
 190:singingbowl.h ****         this->beats = Beats;
 191:singingbowl.h **** 
 192:singingbowl.h ****         for (int i = 0; i < 3; i++) {
 193:singingbowl.h ****             under_modals[i].setFreq(frequency + beats);
 194:singingbowl.h ****             over_modals[i].setFreq(frequency - beats);
 195:singingbowl.h ****         }
 196:singingbowl.h ****     }
 197:singingbowl.h **** 
 198:singingbowl.h ****     inline float getFrequency() const{return this->frequency;}
 199:singingbowl.h **** 
 200:singingbowl.h ****     inline float getBeats() const{return this->beats;}
 201:singingbowl.h **** 
 202:singingbowl.h ****     inline float Process(float input){
ARM GAS  /var/folders/1p/hl98tgf51p19ck4ldyh6xb6c0000gn/T//ccZqo17l.s 			page 27


 203:singingbowl.h ****         // Process first delay line with input
 204:singingbowl.h ****         float under_output = under_modals[0].Process(input);
 205:singingbowl.h ****         under_output += under_modals[1].Process(under_output) * -1.0f;
 526              		.loc 13 205 9 is_stmt 1 view .LVU82
 527              	.LBB962:
 528              	.LBI850:
 137:singingbowl.h ****         // Mix Source with Feedback
 529              		.loc 13 137 11 view .LVU83
 530              	.LBB951:
 142:singingbowl.h **** 
 531              		.loc 13 142 9 view .LVU84
 532              	.LBB889:
 533              	.LBB873:
  78:singingbowl.h **** 
 534              		.loc 13 78 41 is_stmt 0 view .LVU85
 535 00ea 00F6F873 		addw	r3, r0, #4088
  78:singingbowl.h **** 
 536              		.loc 13 78 35 view .LVU86
 537 00ee 00F6E472 		addw	r2, r0, #4068
  78:singingbowl.h **** 
 538              		.loc 13 78 29 view .LVU87
 539 00f2 00F6F47A 		addw	r10, r0, #4084
 540              	.LBE873:
 541              	.LBE889:
 542              	.LBB890:
 543              	.LBB855:
  65:../DaisyExamples/DaisySP//Source/Utility/delayline.h ****         write_ptr_        = (write_ptr_ - 1 + max_size) % max_size;
 544              		.loc 14 65 45 view .LVU88
 545 00f6 01F2DB5E 		addw	lr, r1, #1499
 546              	.LBE855:
 547              	.LBE890:
 548              	.LBB891:
 549              	.LBB874:
  78:singingbowl.h **** 
 550              		.loc 13 78 39 view .LVU89
 551 00fa 92ED005A 		vldr.32	s10, [r2]
 552 00fe D3ED007A 		vldr.32	s15, [r3]
 553              	.LBE874:
 554              	.LBE891:
 555              	.LBB892:
 556              	.LBB856:
 557              		.loc 14 65 57 view .LVU90
 558 0102 E74A     		ldr	r2, .L73+4
 559              	.LBE856:
 560              	.LBE892:
 561              	.LBB893:
 562              	.LBB875:
  78:singingbowl.h **** 
 563              		.loc 13 78 33 view .LVU91
 564 0104 67EEC57A 		vnmul.f32	s15, s15, s10
  78:singingbowl.h **** 
 565              		.loc 13 78 29 view .LVU92
 566 0108 9AED005A 		vldr.32	s10, [r10]
 567              	.LBE875:
 568              	.LBE893:
 569              	.LBB894:
 570              	.LBB857:
ARM GAS  /var/folders/1p/hl98tgf51p19ck4ldyh6xb6c0000gn/T//ccZqo17l.s 			page 28


 571              		.loc 14 65 45 view .LVU93
 572 010c 0191     		str	r1, [sp, #4]
 573              	.LBE857:
 574              	.LBE894:
 575              	.LBB895:
 576              	.LBB876:
  85:singingbowl.h ****         y1_ = output;
 577              		.loc 13 85 13 view .LVU94
 578 010e 83ED005A 		vstr.32	s10, [r3]
  78:singingbowl.h **** 
 579              		.loc 13 78 24 view .LVU95
 580 0112 00F57E63 		add	r3, r0, #4064
 581              	.LBE876:
 582              	.LBE895:
 583              	.LBB896:
 584              	.LBB858:
 585              		.loc 14 65 57 view .LVU96
 586 0116 40F2DC50 		movw	r0, #1500
 587              		.loc 14 65 27 view .LVU97
 588 011a E049     		ldr	r1, .L73
 589              	.LBE858:
 590              	.LBE896:
 591              	.LBB897:
 592              	.LBB877:
  78:singingbowl.h **** 
 593              		.loc 13 78 33 view .LVU98
 594 011c D3ED004A 		vldr.32	s9, [r3]
 595              	.LBE877:
 596              	.LBE897:
 597              	.LBB898:
 598              	.LBB859:
 599              		.loc 14 65 57 view .LVU99
 600 0120 A2FB0EC3 		umull	ip, r3, r2, lr
 601              	.LBE859:
 602              	.LBE898:
 603              	.LBB899:
 604              	.LBB878:
  78:singingbowl.h **** 
 605              		.loc 13 78 53 view .LVU100
 606 0124 AAF1040C 		sub	ip, r10, #4
 607              	.LBE878:
 608              	.LBE899:
 609              	.LBB900:
 610              	.LBB860:
 611              		.loc 14 65 57 view .LVU101
 612 0128 5B09     		lsrs	r3, r3, #5
 613              	.LBE860:
 614              	.LBE900:
 615              	.LBB901:
 616              	.LBB879:
  78:singingbowl.h **** 
 617              		.loc 13 78 33 view .LVU102
 618 012a E4EE857A 		vfma.f32	s15, s9, s10
  78:singingbowl.h **** 
 619              		.loc 13 78 45 view .LVU103
 620 012e 9CED005A 		vldr.32	s10, [ip]
 621              	.LBE879:
ARM GAS  /var/folders/1p/hl98tgf51p19ck4ldyh6xb6c0000gn/T//ccZqo17l.s 			page 29


 622              	.LBE901:
 623              	.LBB902:
 624              	.LBB861:
 625              		.loc 14 65 57 view .LVU104
 626 0132 00FB13E3 		mls	r3, r0, r3, lr
 627              	.LBE861:
 628              	.LBE902:
 629              	.LBB903:
 630              	.LBB880:
  78:singingbowl.h **** 
 631              		.loc 13 78 47 view .LVU105
 632 0136 AAF10C0E 		sub	lr, r10, #12
 633              	.LBE880:
 634              	.LBE903:
 635              	.LBB904:
 636              	.LBB862:
 637              		.loc 14 65 27 view .LVU106
 638 013a C1F85C38 		str	r3, [r1, #2140]
 639              	.LBE862:
 640              	.LBE904:
 641              	.LBB905:
 642              	.LBB906:
  66:../DaisyExamples/DaisySP//Source/Utility/delayline.h ****     }
  67:../DaisyExamples/DaisySP//Source/Utility/delayline.h **** 
  68:../DaisyExamples/DaisySP//Source/Utility/delayline.h ****     /** returns the next sample of type T in the delay line, interpolated if necessary.
  69:../DaisyExamples/DaisySP//Source/Utility/delayline.h ****     */
  70:../DaisyExamples/DaisySP//Source/Utility/delayline.h ****     inline const T Read() const
  71:../DaisyExamples/DaisySP//Source/Utility/delayline.h ****     {
  72:../DaisyExamples/DaisySP//Source/Utility/delayline.h ****         T a = line_[(write_ptr_ + delay_) % max_size];
 643              		.loc 14 72 33 view .LVU107
 644 013e D1F86018 		ldr	r1, [r1, #2144]
 645              	.LBE906:
 646              	.LBE905:
 647              	.LBB916:
 648              	.LBB881:
  78:singingbowl.h **** 
 649              		.loc 13 78 45 view .LVU108
 650 0142 DEED004A 		vldr.32	s9, [lr]
 651              	.LBE881:
 652              	.LBE916:
 653              	.LBB917:
 654              	.LBB907:
 655              		.loc 14 72 33 view .LVU109
 656 0146 0B44     		add	r3, r3, r1
 657              	.LBE907:
 658              	.LBE917:
 659              	.LBB918:
 660              	.LBB882:
  78:singingbowl.h **** 
 661              		.loc 13 78 53 view .LVU110
 662 0148 AAF6F471 		subw	r1, r10, #4084
  78:singingbowl.h **** 
 663              		.loc 13 78 45 view .LVU111
 664 014c E4EEC57A 		vfms.f32	s15, s9, s10
 665              	.LBE882:
 666              	.LBE918:
 142:singingbowl.h **** 
ARM GAS  /var/folders/1p/hl98tgf51p19ck4ldyh6xb6c0000gn/T//ccZqo17l.s 			page 30


 667              		.loc 13 142 38 view .LVU112
 668 0150 A1F5F66B 		sub	fp, r1, #1968
 669              	.LBB919:
 670              	.LBB908:
  73:../DaisyExamples/DaisySP//Source/Utility/delayline.h ****         T b = line_[(write_ptr_ + delay_ + 1) % max_size];
 671              		.loc 14 73 42 view .LVU113
 672 0154 03F1010E 		add	lr, r3, #1
 673              	.LBE908:
 674              	.LBE919:
 142:singingbowl.h **** 
 675              		.loc 13 142 38 view .LVU114
 676 0158 A1F58051 		sub	r1, r1, #4096
 142:singingbowl.h **** 
 677              		.loc 13 142 21 view .LVU115
 678 015c 9BED005A 		vldr.32	s10, [fp]
 679 0160 36EE855A 		vadd.f32	s10, s13, s10
 680              	.LVL22:
 148:singingbowl.h **** 
 681              		.loc 13 148 9 is_stmt 1 view .LVU116
 682              	.LBB920:
 683              	.LBI871:
  77:singingbowl.h ****         float output = b_ * y1_ - a1_ * y2_ - a2_ * x2_ + input;
 684              		.loc 13 77 11 view .LVU117
 685              	.LBB883:
  78:singingbowl.h **** 
 686              		.loc 13 78 9 view .LVU118
  78:singingbowl.h **** 
 687              		.loc 13 78 15 is_stmt 0 view .LVU119
 688 0164 75EE277A 		vadd.f32	s15, s10, s15
 689              	.LVL23:
  81:singingbowl.h ****         x1_ = input;
 690              		.loc 13 81 9 is_stmt 1 view .LVU120
  86:singingbowl.h **** 
 691              		.loc 13 86 13 is_stmt 0 view .LVU121
 692 0168 CAED007A 		vstr.32	s15, [r10]
 693              	.LBE883:
 694              	.LBE920:
 695              	.LBB921:
 696              	.LBB909:
  72:../DaisyExamples/DaisySP//Source/Utility/delayline.h ****         T b = line_[(write_ptr_ + delay_ + 1) % max_size];
 697              		.loc 14 72 43 view .LVU122
 698 016c A2FB03BA 		umull	fp, r10, r2, r3
 699              		.loc 14 73 47 view .LVU123
 700 0170 A2FB0EB2 		umull	fp, r2, r2, lr
 701              	.LBE909:
 702              	.LBE921:
 703              	.LBB922:
 704              	.LBB863:
  64:../DaisyExamples/DaisySP//Source/Utility/delayline.h ****         write_ptr_        = (write_ptr_ - 1 + max_size) % max_size;
 705              		.loc 14 64 27 view .LVU124
 706 0174 01F65C0B 		addw	fp, r1, #2140
 707              	.LBE863:
 708              	.LBE922:
 709              	.LBB923:
 710              	.LBB910:
  72:../DaisyExamples/DaisySP//Source/Utility/delayline.h ****         T b = line_[(write_ptr_ + delay_ + 1) % max_size];
 711              		.loc 14 72 43 view .LVU125
ARM GAS  /var/folders/1p/hl98tgf51p19ck4ldyh6xb6c0000gn/T//ccZqo17l.s 			page 31


 712 0178 4FEA5A1A 		lsr	r10, r10, #5
 713              		.loc 14 73 47 view .LVU126
 714 017c 5209     		lsrs	r2, r2, #5
  72:../DaisyExamples/DaisySP//Source/Utility/delayline.h ****         T b = line_[(write_ptr_ + delay_ + 1) % max_size];
 715              		.loc 14 72 43 view .LVU127
 716 017e 00FB1A3A 		mls	r10, r0, r10, r3
 717              	.LBE910:
 718              	.LBE923:
 719              	.LBB924:
 720              	.LBB864:
  64:../DaisyExamples/DaisySP//Source/Utility/delayline.h ****         write_ptr_        = (write_ptr_ - 1 + max_size) % max_size;
 721              		.loc 14 64 27 view .LVU128
 722 0182 0B46     		mov	r3, r1
 723              	.LBE864:
 724              	.LBE924:
 725              	.LBB925:
 726              	.LBB911:
 727              		.loc 14 73 47 view .LVU129
 728 0184 00FB12E0 		mls	r0, r0, r2, lr
 729              	.LBE911:
 730              	.LBE925:
 731              	.LBB926:
 732              	.LBB865:
  64:../DaisyExamples/DaisySP//Source/Utility/delayline.h ****         write_ptr_        = (write_ptr_ - 1 + max_size) % max_size;
 733              		.loc 14 64 27 view .LVU130
 734 0188 0199     		ldr	r1, [sp, #4]
 735              	.LBE865:
 736              	.LBE926:
 737              	.LBB927:
 738              	.LBB884:
  81:singingbowl.h ****         x1_ = input;
 739              		.loc 13 81 15 view .LVU131
 740 018a 03F58052 		add	r2, r3, #4096
 741              	.LBE884:
 742              	.LBE927:
 743              	.LBB928:
 744              	.LBB912:
  74:../DaisyExamples/DaisySP//Source/Utility/delayline.h ****         return a + (b - a) * frac_;
 745              		.loc 14 74 30 view .LVU132
 746 018e 03F65803 		addw	r3, r3, #2136
 747              	.LBE912:
 748              	.LBE928:
 749              	.LBB929:
 750              	.LBB866:
  64:../DaisyExamples/DaisySP//Source/Utility/delayline.h ****         write_ptr_        = (write_ptr_ - 1 + max_size) % max_size;
 751              		.loc 14 64 27 view .LVU133
 752 0192 0BEB8101 		add	r1, fp, r1, lsl #2
 753              	.LBE866:
 754              	.LBE929:
 755              	.LBB930:
 756              	.LBB885:
  81:singingbowl.h ****         x1_ = input;
 757              		.loc 13 81 15 view .LVU134
 758 0196 02F6EC72 		addw	r2, r2, #4076
 759              	.LBE885:
 760              	.LBE930:
 761              	.LBB931:
ARM GAS  /var/folders/1p/hl98tgf51p19ck4ldyh6xb6c0000gn/T//ccZqo17l.s 			page 32


 762              	.LBB913:
 763              		.loc 14 74 30 view .LVU135
 764 019a D3ED004A 		vldr.32	s9, [r3]
  72:../DaisyExamples/DaisySP//Source/Utility/delayline.h ****         T b = line_[(write_ptr_ + delay_ + 1) % max_size];
 765              		.loc 14 72 11 view .LVU136
 766 019e 0BEB8A0A 		add	r10, fp, r10, lsl #2
 767              	.LBE913:
 768              	.LBE931:
 769              	.LBB932:
 770              	.LBB886:
  81:singingbowl.h ****         x1_ = input;
 771              		.loc 13 81 13 view .LVU137
 772 01a2 1368     		ldr	r3, [r2]	@ float
 773              	.LBE886:
 774              	.LBE932:
 775              	.LBB933:
 776              	.LBB914:
  73:../DaisyExamples/DaisySP//Source/Utility/delayline.h ****         return a + (b - a) * frac_;
 777              		.loc 14 73 11 view .LVU138
 778 01a4 0BEB8000 		add	r0, fp, r0, lsl #2
 779              	.LBE914:
 780              	.LBE933:
 781              	.LBB934:
 782              	.LBB887:
  82:singingbowl.h **** 
 783              		.loc 13 82 13 view .LVU139
 784 01a8 82ED005A 		vstr.32	s10, [r2]
  81:singingbowl.h ****         x1_ = input;
 785              		.loc 13 81 13 view .LVU140
 786 01ac CCF80030 		str	r3, [ip]	@ float
  82:singingbowl.h **** 
 787              		.loc 13 82 9 is_stmt 1 view .LVU141
  85:singingbowl.h ****         y1_ = output;
 788              		.loc 13 85 9 view .LVU142
  86:singingbowl.h **** 
 789              		.loc 13 86 9 view .LVU143
  88:singingbowl.h ****     }
 790              		.loc 13 88 9 view .LVU144
 791              	.LVL24:
  88:singingbowl.h ****     }
 792              		.loc 13 88 9 is_stmt 0 view .LVU145
 793              	.LBE887:
 794              	.LBE934:
 151:singingbowl.h **** 
 795              		.loc 13 151 9 is_stmt 1 view .LVU146
 796              	.LBB935:
 797              	.LBI852:
  62:../DaisyExamples/DaisySP//Source/Utility/delayline.h ****     {
 798              		.loc 14 62 17 view .LVU147
  62:../DaisyExamples/DaisySP//Source/Utility/delayline.h ****     {
 799              		.loc 14 62 17 is_stmt 0 view .LVU148
 800              	.LBE935:
 154:singingbowl.h **** 
 801              		.loc 13 154 9 is_stmt 1 view .LVU149
 802              	.LBB936:
 803              	.LBI905:
  70:../DaisyExamples/DaisySP//Source/Utility/delayline.h ****     {
ARM GAS  /var/folders/1p/hl98tgf51p19ck4ldyh6xb6c0000gn/T//ccZqo17l.s 			page 33


 804              		.loc 14 70 20 view .LVU150
 805              	.LBE936:
 157:singingbowl.h **** 
 806              		.loc 13 157 66 is_stmt 0 view .LVU151
 807 01b0 ABF10803 		sub	r3, fp, #8
 808              	.LBB937:
 809              	.LBB867:
  64:../DaisyExamples/DaisySP//Source/Utility/delayline.h ****         write_ptr_        = (write_ptr_ - 1 + max_size) % max_size;
 810              		.loc 14 64 27 view .LVU152
 811 01b4 C1ED027A 		vstr.32	s15, [r1, #8]
 812              	.LBE867:
 813              	.LBE937:
 814              	.LBB938:
 815              	.LBB915:
  72:../DaisyExamples/DaisySP//Source/Utility/delayline.h ****         T b = line_[(write_ptr_ + delay_ + 1) % max_size];
 816              		.loc 14 72 11 view .LVU153
 817 01b8 9AED02CA 		vldr.32	s24, [r10, #8]
 818              	.LVL25:
 819              		.loc 14 74 23 view .LVU154
 820 01bc D0ED027A 		vldr.32	s15, [r0, #8]
 821              	.LVL26:
 822              		.loc 14 74 23 view .LVU155
 823 01c0 77EECC7A 		vsub.f32	s15, s15, s24
 824              		.loc 14 74 30 view .LVU156
 825 01c4 A7EEA4CA 		vfma.f32	s24, s15, s9
 826              	.LVL27:
 827              		.loc 14 74 30 view .LVU157
 828              	.LBE915:
 829              	.LBE938:
 157:singingbowl.h **** 
 830              		.loc 13 157 9 is_stmt 1 view .LVU158
 831              	.LBB939:
 832              	.LBI868:
  75:/Applications/ARM/arm-none-eabi/include/c++/10.3.1/bits/std_abs.h ****   { return __builtin_fabsf(__x); }
 833              		.loc 15 75 3 view .LVU159
 834              	.LBB870:
 835              		.loc 15 76 5 view .LVU160
 836              		.loc 15 76 5 is_stmt 0 view .LVU161
 837              	.LBE870:
 838              	.LBE939:
 157:singingbowl.h **** 
 839              		.loc 13 157 66 view .LVU162
 840 01c8 D3ED004A 		vldr.32	s9, [r3]
 157:singingbowl.h **** 
 841              		.loc 13 157 39 view .LVU163
 842 01cc 66EE247A 		vmul.f32	s15, s12, s9
 843              	.LVL28:
 844              	.LBB940:
 845              	.LBI940:
  75:/Applications/ARM/arm-none-eabi/include/c++/10.3.1/bits/std_abs.h ****   { return __builtin_fabsf(__x); }
 846              		.loc 15 75 3 is_stmt 1 view .LVU164
 847              	.LBB941:
 848              		.loc 15 76 5 view .LVU165
 849              		.loc 15 76 5 is_stmt 0 view .LVU166
 850              	.LBE941:
 851              	.LBE940:
 852              	.LBB943:
ARM GAS  /var/folders/1p/hl98tgf51p19ck4ldyh6xb6c0000gn/T//ccZqo17l.s 			page 34


 853              	.LBI943:
  14:singingbowl.h ****     float totalVelocity = (initialVelocity + relativeVelocity);
 854              		.loc 13 14 7 is_stmt 1 view .LVU167
 855              	.LBB944:
  15:singingbowl.h ****     if (totalVelocity == 0)
 856              		.loc 13 15 5 view .LVU168
  15:singingbowl.h ****     if (totalVelocity == 0)
 857              		.loc 13 15 11 is_stmt 0 view .LVU169
 858 01d0 B0EE676A 		vmov.f32	s12, s15
 859              	.LBE944:
 860              	.LBE943:
 157:singingbowl.h **** 
 861              		.loc 13 157 80 view .LVU170
 862 01d4 36EE8C5A 		vadd.f32	s10, s13, s24
 863              	.LVL29:
 864              	.LBB947:
 865              	.LBB942:
 866              		.loc 15 76 31 view .LVU171
 867 01d8 B0EEC55A 		vabs.f32	s10, s10
 868              	.LBE942:
 869              	.LBE947:
 870              	.LBB948:
 871              	.LBB945:
  15:singingbowl.h ****     if (totalVelocity == 0)
 872              		.loc 13 15 11 view .LVU172
 873 01dc A4EE856A 		vfma.f32	s12, s9, s10
 874              	.LVL30:
  16:singingbowl.h ****         return 0;
 875              		.loc 13 16 5 is_stmt 1 view .LVU173
 876 01e0 B5EE406A 		vcmp.f32	s12, #0
 877 01e4 F1EE10FA 		vmrs	APSR_nzcv, FPSCR
 878 01e8 01F00587 		beq	.L45
  19:singingbowl.h **** }
 879              		.loc 13 19 9 view .LVU174
  19:singingbowl.h **** }
 880              		.loc 13 19 71 is_stmt 0 view .LVU175
 881 01ec 9FEDAD5A 		vldr.32	s10, .L73+8
  19:singingbowl.h **** }
 882              		.loc 13 19 105 view .LVU176
 883 01f0 DFEDAD4A 		vldr.32	s9, .L73+12
 884              	.LVL31:
  19:singingbowl.h **** }
 885              		.loc 13 19 71 view .LVU177
 886 01f4 67EE857A 		vmul.f32	s15, s15, s10
 887              	.LVL32:
  19:singingbowl.h **** }
 888              		.loc 13 19 90 view .LVU178
 889 01f8 87EE865A 		vdiv.f32	s10, s15, s12
  19:singingbowl.h **** }
 890              		.loc 13 19 105 view .LVU179
 891 01fc 35EE245A 		vadd.f32	s10, s10, s9
 892              	.L19:
 893              	.LVL33:
  19:singingbowl.h **** }
 894              		.loc 13 19 105 view .LVU180
 895              	.LBE945:
 896              	.LBE948:
ARM GAS  /var/folders/1p/hl98tgf51p19ck4ldyh6xb6c0000gn/T//ccZqo17l.s 			page 35


 897              	.LBE951:
 898              	.LBE962:
 899              	.LBB963:
 900              	.LBB964:
 142:singingbowl.h **** 
 901              		.loc 13 142 21 view .LVU181
 902 0200 AA48     		ldr	r0, .L73+16
 903              	.LBE964:
 904              	.LBE963:
 905              	.LBB1042:
 906              	.LBB952:
 160:singingbowl.h **** 
 907              		.loc 13 160 27 view .LVU182
 908 0202 25EE0C4A 		vmul.f32	s8, s10, s24
 909 0206 36EECCCA 		vsub.f32	s24, s13, s24
 910              	.LVL34:
 160:singingbowl.h **** 
 911              		.loc 13 160 27 view .LVU183
 912              	.LBE952:
 913              	.LBE1042:
 914              	.LBB1043:
 915              	.LBB1033:
 916              	.LBB965:
 917              	.LBB966:
  64:../DaisyExamples/DaisySP//Source/Utility/delayline.h ****         write_ptr_        = (write_ptr_ - 1 + max_size) % max_size;
 918              		.loc 14 64 15 view .LVU184
 919 020a D0F80421 		ldr	r2, [r0, #260]
 920              	.LBE966:
 921              	.LBE965:
 922              	.LBB974:
 923              	.LBB975:
  78:singingbowl.h **** 
 924              		.loc 13 78 41 view .LVU185
 925 020e 00F58051 		add	r1, r0, #4096
 926              	.LVL35:
  78:singingbowl.h **** 
 927              		.loc 13 78 41 view .LVU186
 928 0212 00F5C553 		add	r3, r0, #6304
 929              	.LBE975:
 930              	.LBE974:
 157:singingbowl.h **** 
 931              		.loc 13 157 66 view .LVU187
 932 0216 D0ED3F4A 		vldr.32	s9, [r0, #252]
 933              	.LBB987:
 934              	.LBB967:
  65:../DaisyExamples/DaisySP//Source/Utility/delayline.h ****     }
 935              		.loc 14 65 45 view .LVU188
 936 021a 02F2DB5A 		addw	r10, r2, #1499
  64:../DaisyExamples/DaisySP//Source/Utility/delayline.h ****         write_ptr_        = (write_ptr_ - 1 + max_size) % max_size;
 937              		.loc 14 64 27 view .LVU189
 938 021e 00EB820C 		add	ip, r0, r2, lsl #2
 939              	.LBE967:
 940              	.LBE987:
 941              	.LBB988:
 942              	.LBB976:
  78:singingbowl.h **** 
 943              		.loc 13 78 35 view .LVU190
ARM GAS  /var/folders/1p/hl98tgf51p19ck4ldyh6xb6c0000gn/T//ccZqo17l.s 			page 36


 944 0222 01F68C01 		addw	r1, r1, #2188
  78:singingbowl.h **** 
 945              		.loc 13 78 29 view .LVU191
 946 0226 00F58052 		add	r2, r0, #4096
  78:singingbowl.h **** 
 947              		.loc 13 78 39 view .LVU192
 948 022a D3ED007A 		vldr.32	s15, [r3]
  78:singingbowl.h **** 
 949              		.loc 13 78 24 view .LVU193
 950 022e 183B     		subs	r3, r3, #24
  78:singingbowl.h **** 
 951              		.loc 13 78 29 view .LVU194
 952 0230 02F69C02 		addw	r2, r2, #2204
  78:singingbowl.h **** 
 953              		.loc 13 78 39 view .LVU195
 954 0234 D1ED006A 		vldr.32	s13, [r1]
 955              	.LVL36:
  78:singingbowl.h **** 
 956              		.loc 13 78 39 view .LVU196
 957              	.LBE976:
 958              	.LBE988:
 959              	.LBB989:
 960              	.LBB968:
  65:../DaisyExamples/DaisySP//Source/Utility/delayline.h ****     }
 961              		.loc 14 65 57 view .LVU197
 962 0238 9949     		ldr	r1, .L73+4
  65:../DaisyExamples/DaisySP//Source/Utility/delayline.h ****     }
 963              		.loc 14 65 57 view .LVU198
 964              	.LBE968:
 965              	.LBE989:
 157:singingbowl.h **** 
 966              		.loc 13 157 39 view .LVU199
 967 023a 64EEA55A 		vmul.f32	s11, s9, s11
 968              	.LBB990:
 969              	.LBB977:
  78:singingbowl.h **** 
 970              		.loc 13 78 33 view .LVU200
 971 023e 67EEE67A 		vnmul.f32	s15, s15, s13
  78:singingbowl.h **** 
 972              		.loc 13 78 29 view .LVU201
 973 0242 D2ED006A 		vldr.32	s13, [r2]
 974              	.LBE977:
 975              	.LBE990:
 142:singingbowl.h **** 
 976              		.loc 13 142 21 view .LVU202
 977 0246 90ED3E6A 		vldr.32	s12, [r0, #248]
 978              	.LBB991:
 979              	.LBB978:
  85:singingbowl.h ****         y1_ = output;
 980              		.loc 13 85 13 view .LVU203
 981 024a C3ED066A 		vstr.32	s13, [r3, #24]
 982              	.LVL37:
  78:singingbowl.h **** 
 983              		.loc 13 78 33 view .LVU204
 984 024e 93ED003A 		vldr.32	s6, [r3]
 985              	.LBE978:
 986              	.LBE991:
ARM GAS  /var/folders/1p/hl98tgf51p19ck4ldyh6xb6c0000gn/T//ccZqo17l.s 			page 37


 987              	.LBB992:
 988              	.LBB969:
  65:../DaisyExamples/DaisySP//Source/Utility/delayline.h ****     }
 989              		.loc 14 65 57 view .LVU205
 990 0252 A1FB0AE3 		umull	lr, r3, r1, r10
 991 0256 40F2DC5E 		movw	lr, #1500
 992              	.LBE969:
 993              	.LBE992:
 994              	.LBB993:
 995              	.LBB994:
 996              		.loc 14 74 30 view .LVU206
 997 025a D0ED403A 		vldr.32	s7, [r0, #256]
 998              	.LBE994:
 999              	.LBE993:
 1000              	.LBB1002:
 1001              	.LBB970:
  65:../DaisyExamples/DaisySP//Source/Utility/delayline.h ****     }
 1002              		.loc 14 65 57 view .LVU207
 1003 025e 5B09     		lsrs	r3, r3, #5
 1004              	.LBE970:
 1005              	.LBE1002:
 1006              	.LBB1003:
 1007              	.LBB979:
  78:singingbowl.h **** 
 1008              		.loc 13 78 33 view .LVU208
 1009 0260 E3EE267A 		vfma.f32	s15, s6, s13
 1010              	.LBE979:
 1011              	.LBE1003:
 142:singingbowl.h **** 
 1012              		.loc 13 142 21 view .LVU209
 1013 0264 37EE066A 		vadd.f32	s12, s14, s12
 1014              	.LBB1004:
 1015              	.LBB971:
  65:../DaisyExamples/DaisySP//Source/Utility/delayline.h ****     }
 1016              		.loc 14 65 57 view .LVU210
 1017 0268 0EFB13A3 		mls	r3, lr, r3, r10
 1018              	.LBE971:
 1019              	.LBE1004:
 1020              	.LBB1005:
 1021              	.LBB980:
  78:singingbowl.h **** 
 1022              		.loc 13 78 53 view .LVU211
 1023 026c A2F1040A 		sub	r10, r2, #4
 1024              	.LBE980:
 1025              	.LBE1005:
 1026              	.LBB1006:
 1027              	.LBB972:
  65:../DaisyExamples/DaisySP//Source/Utility/delayline.h ****     }
 1028              		.loc 14 65 27 view .LVU212
 1029 0270 C0F80431 		str	r3, [r0, #260]
 1030              	.LBE972:
 1031              	.LBE1006:
 1032              	.LBB1007:
 1033              	.LBB995:
  72:../DaisyExamples/DaisySP//Source/Utility/delayline.h ****         T b = line_[(write_ptr_ + delay_ + 1) % max_size];
 1034              		.loc 14 72 33 view .LVU213
 1035 0274 D0F80801 		ldr	r0, [r0, #264]
ARM GAS  /var/folders/1p/hl98tgf51p19ck4ldyh6xb6c0000gn/T//ccZqo17l.s 			page 38


 1036              	.LBE995:
 1037              	.LBE1007:
 1038              	.LBB1008:
 1039              	.LBB981:
  78:singingbowl.h **** 
 1040              		.loc 13 78 45 view .LVU214
 1041 0278 DAED006A 		vldr.32	s13, [r10]
 1042              	.LBE981:
 1043              	.LBE1008:
 1044              	.LBB1009:
 1045              	.LBB996:
  72:../DaisyExamples/DaisySP//Source/Utility/delayline.h ****         T b = line_[(write_ptr_ + delay_ + 1) % max_size];
 1046              		.loc 14 72 33 view .LVU215
 1047 027c 0344     		add	r3, r3, r0
 1048              	.LBE996:
 1049              	.LBE1009:
 1050              	.LBB1010:
 1051              	.LBB982:
  78:singingbowl.h **** 
 1052              		.loc 13 78 47 view .LVU216
 1053 027e A2F10C00 		sub	r0, r2, #12
  78:singingbowl.h **** 
 1054              		.loc 13 78 45 view .LVU217
 1055 0282 90ED003A 		vldr.32	s6, [r0]
 1056              	.LBE982:
 1057              	.LBE1010:
 1058              	.LBB1011:
 1059              	.LBB997:
  73:../DaisyExamples/DaisySP//Source/Utility/delayline.h ****         return a + (b - a) * frac_;
 1060              		.loc 14 73 42 view .LVU218
 1061 0286 581C     		adds	r0, r3, #1
 1062              	.LBE997:
 1063              	.LBE1011:
 1064              	.LBB1012:
 1065              	.LBB983:
  78:singingbowl.h **** 
 1066              		.loc 13 78 45 view .LVU219
 1067 0288 E3EE667A 		vfms.f32	s15, s6, s13
  78:singingbowl.h **** 
 1068              		.loc 13 78 15 view .LVU220
 1069 028c 76EE277A 		vadd.f32	s15, s12, s15
  86:singingbowl.h **** 
 1070              		.loc 13 86 13 view .LVU221
 1071 0290 C2ED007A 		vstr.32	s15, [r2]
 1072              	.LBE983:
 1073              	.LBE1012:
 1074              	.LBB1013:
 1075              	.LBB998:
  72:../DaisyExamples/DaisySP//Source/Utility/delayline.h ****         T b = line_[(write_ptr_ + delay_ + 1) % max_size];
 1076              		.loc 14 72 43 view .LVU222
 1077 0294 A1FB03B2 		umull	fp, r2, r1, r3
  73:../DaisyExamples/DaisySP//Source/Utility/delayline.h ****         return a + (b - a) * frac_;
 1078              		.loc 14 73 47 view .LVU223
 1079 0298 A1FB00B1 		umull	fp, r1, r1, r0
  72:../DaisyExamples/DaisySP//Source/Utility/delayline.h ****         T b = line_[(write_ptr_ + delay_ + 1) % max_size];
 1080              		.loc 14 72 43 view .LVU224
 1081 029c 5209     		lsrs	r2, r2, #5
ARM GAS  /var/folders/1p/hl98tgf51p19ck4ldyh6xb6c0000gn/T//ccZqo17l.s 			page 39


  73:../DaisyExamples/DaisySP//Source/Utility/delayline.h ****         return a + (b - a) * frac_;
 1082              		.loc 14 73 47 view .LVU225
 1083 029e 4909     		lsrs	r1, r1, #5
  72:../DaisyExamples/DaisySP//Source/Utility/delayline.h ****         T b = line_[(write_ptr_ + delay_ + 1) % max_size];
 1084              		.loc 14 72 43 view .LVU226
 1085 02a0 0EFB1233 		mls	r3, lr, r2, r3
  72:../DaisyExamples/DaisySP//Source/Utility/delayline.h ****         T b = line_[(write_ptr_ + delay_ + 1) % max_size];
 1086              		.loc 14 72 11 view .LVU227
 1087 02a4 814A     		ldr	r2, .L73+16
  73:../DaisyExamples/DaisySP//Source/Utility/delayline.h ****         return a + (b - a) * frac_;
 1088              		.loc 14 73 47 view .LVU228
 1089 02a6 0EFB1100 		mls	r0, lr, r1, r0
  72:../DaisyExamples/DaisySP//Source/Utility/delayline.h ****         T b = line_[(write_ptr_ + delay_ + 1) % max_size];
 1090              		.loc 14 72 11 view .LVU229
 1091 02aa 02EB8303 		add	r3, r2, r3, lsl #2
  73:../DaisyExamples/DaisySP//Source/Utility/delayline.h ****         return a + (b - a) * frac_;
 1092              		.loc 14 73 11 view .LVU230
 1093 02ae 02EB8000 		add	r0, r2, r0, lsl #2
 1094              	.LBE998:
 1095              	.LBE1013:
 1096              	.LBB1014:
 1097              	.LBB984:
  81:singingbowl.h ****         x1_ = input;
 1098              		.loc 13 81 15 view .LVU231
 1099 02b2 02F58052 		add	r2, r2, #4096
 1100 02b6 02F69401 		addw	r1, r2, #2196
 1101              	.LBE984:
 1102              	.LBE1014:
 1103              	.LBE1033:
 1104              	.LBE1043:
 1105              	.LBB1044:
 1106              	.LBB953:
 157:singingbowl.h **** 
 1107              		.loc 13 157 23 view .LVU232
 1108 02ba A2F5C042 		sub	r2, r2, #24576
 1109 02be 02F64C02 		addw	r2, r2, #2124
 1110 02c2 82ED005A 		vstr.32	s10, [r2]
 160:singingbowl.h **** 
 1111              		.loc 13 160 9 is_stmt 1 view .LVU233
 1112              	.LBE953:
 1113              	.LBE1044:
 1114              	.LBB1045:
 1115              	.LBB1034:
 1116              	.LBB1015:
 1117              	.LBB985:
  81:singingbowl.h ****         x1_ = input;
 1118              		.loc 13 81 13 is_stmt 0 view .LVU234
 1119 02c6 0A68     		ldr	r2, [r1]	@ float
  82:singingbowl.h **** 
 1120              		.loc 13 82 13 view .LVU235
 1121 02c8 81ED006A 		vstr.32	s12, [r1]
  81:singingbowl.h ****         x1_ = input;
 1122              		.loc 13 81 13 view .LVU236
 1123 02cc CAF80020 		str	r2, [r10]	@ float
 1124              	.LBE985:
 1125              	.LBE1015:
 1126              	.LBB1016:
ARM GAS  /var/folders/1p/hl98tgf51p19ck4ldyh6xb6c0000gn/T//ccZqo17l.s 			page 40


 1127              	.LBB973:
  64:../DaisyExamples/DaisySP//Source/Utility/delayline.h ****         write_ptr_        = (write_ptr_ - 1 + max_size) % max_size;
 1128              		.loc 14 64 27 view .LVU237
 1129 02d0 CCED437A 		vstr.32	s15, [ip, #268]
 1130              	.LBE973:
 1131              	.LBE1016:
 1132              	.LBB1017:
 1133              	.LBB999:
  72:../DaisyExamples/DaisySP//Source/Utility/delayline.h ****         T b = line_[(write_ptr_ + delay_ + 1) % max_size];
 1134              		.loc 14 72 11 view .LVU238
 1135 02d4 D3ED437A 		vldr.32	s15, [r3, #268]
 1136              		.loc 14 74 23 view .LVU239
 1137 02d8 D0ED436A 		vldr.32	s13, [r0, #268]
 1138              	.LBE999:
 1139              	.LBE1017:
 1140              	.LBE1034:
 1141              	.LBE1045:
 1142              	.LBB1046:
 1143              	.LBB954:
 160:singingbowl.h **** 
 1144              		.loc 13 160 18 view .LVU240
 1145 02dc 6F4A     		ldr	r2, .L73
 1146              	.LBE954:
 1147              	.LBE1046:
 1148              	.LBB1047:
 1149              	.LBB1035:
 1150              	.LBB1018:
 1151              	.LBB1000:
 1152              		.loc 14 74 23 view .LVU241
 1153 02de 76EEE76A 		vsub.f32	s13, s13, s15
 1154              	.LBE1000:
 1155              	.LBE1018:
 1156              	.LBE1035:
 1157              	.LBE1047:
 1158              	.LBB1048:
 1159              	.LBB955:
 160:singingbowl.h **** 
 1160              		.loc 13 160 18 view .LVU242
 1161 02e2 02F50563 		add	r3, r2, #2128
 1162              	.LBE955:
 1163              	.LBE1048:
 1164              	.LBB1049:
 1165              	.LBB1036:
 1166              	.LBB1019:
 1167              	.LBB1001:
 1168              		.loc 14 74 30 view .LVU243
 1169 02e6 E6EEA37A 		vfma.f32	s15, s13, s7
 1170              	.LBE1001:
 1171              	.LBE1019:
 1172              	.LBE1036:
 1173              	.LBE1049:
 1174              	.LBB1050:
 1175              	.LBB956:
 160:singingbowl.h **** 
 1176              		.loc 13 160 18 view .LVU244
 1177 02ea 83ED004A 		vstr.32	s8, [r3]
 1178              	.LBE956:
ARM GAS  /var/folders/1p/hl98tgf51p19ck4ldyh6xb6c0000gn/T//ccZqo17l.s 			page 41


 1179              	.LBE1050:
 1180              	.LBB1051:
 1181              	.LBB1037:
 1182              	.LBB1020:
 1183              	.LBB1021:
  15:singingbowl.h ****     if (totalVelocity == 0)
 1184              		.loc 13 15 11 view .LVU245
 1185 02ee F0EE656A 		vmov.f32	s13, s11
 1186              	.LBE1021:
 1187              	.LBE1020:
 157:singingbowl.h **** 
 1188              		.loc 13 157 80 view .LVU246
 1189 02f2 37EE277A 		vadd.f32	s14, s14, s15
 1190              	.LVL38:
 1191              	.LBB1024:
 1192              	.LBB1025:
 1193              		.loc 15 76 31 view .LVU247
 1194 02f6 B0EEC77A 		vabs.f32	s14, s14
 1195              	.LBE1025:
 1196              	.LBE1024:
 1197              	.LBE1037:
 1198              	.LBE1051:
 1199              	.LBB1052:
 1200              	.LBB957:
 162:singingbowl.h ****     }
 1201              		.loc 13 162 9 is_stmt 1 view .LVU248
 1202              	.LVL39:
 162:singingbowl.h ****     }
 1203              		.loc 13 162 9 is_stmt 0 view .LVU249
 1204              	.LBE957:
 1205              	.LBE1052:
 206:singingbowl.h ****         //under_output += under_modals[2].Process(under_output) * -1.0f;
 207:singingbowl.h ****         //under_output += under_modals[3].Process(under_output) * -1.0f;
 208:singingbowl.h **** 
 209:singingbowl.h **** 
 210:singingbowl.h ****         float over_output = over_modals[0].Process(input) * -1.f;
 1206              		.loc 13 210 9 is_stmt 1 view .LVU250
 1207              	.LBB1053:
 1208              	.LBI963:
 137:singingbowl.h ****         // Mix Source with Feedback
 1209              		.loc 13 137 11 view .LVU251
 1210              	.LBB1038:
 142:singingbowl.h **** 
 1211              		.loc 13 142 9 view .LVU252
 148:singingbowl.h **** 
 1212              		.loc 13 148 9 view .LVU253
 1213              	.LBB1027:
 1214              	.LBI974:
  77:singingbowl.h ****         float output = b_ * y1_ - a1_ * y2_ - a2_ * x2_ + input;
 1215              		.loc 13 77 11 view .LVU254
 1216              	.LBB986:
  78:singingbowl.h **** 
 1217              		.loc 13 78 9 view .LVU255
  81:singingbowl.h ****         x1_ = input;
 1218              		.loc 13 81 9 view .LVU256
  82:singingbowl.h **** 
 1219              		.loc 13 82 9 view .LVU257
ARM GAS  /var/folders/1p/hl98tgf51p19ck4ldyh6xb6c0000gn/T//ccZqo17l.s 			page 42


  85:singingbowl.h ****         y1_ = output;
 1220              		.loc 13 85 9 view .LVU258
  86:singingbowl.h **** 
 1221              		.loc 13 86 9 view .LVU259
  88:singingbowl.h ****     }
 1222              		.loc 13 88 9 view .LVU260
  88:singingbowl.h ****     }
 1223              		.loc 13 88 9 is_stmt 0 view .LVU261
 1224              	.LBE986:
 1225              	.LBE1027:
 151:singingbowl.h **** 
 1226              		.loc 13 151 9 is_stmt 1 view .LVU262
 1227              	.LBB1028:
 1228              	.LBI965:
  62:../DaisyExamples/DaisySP//Source/Utility/delayline.h ****     {
 1229              		.loc 14 62 17 view .LVU263
  62:../DaisyExamples/DaisySP//Source/Utility/delayline.h ****     {
 1230              		.loc 14 62 17 is_stmt 0 view .LVU264
 1231              	.LBE1028:
 154:singingbowl.h **** 
 1232              		.loc 13 154 9 is_stmt 1 view .LVU265
 1233              	.LBB1029:
 1234              	.LBI993:
  70:../DaisyExamples/DaisySP//Source/Utility/delayline.h ****     {
 1235              		.loc 14 70 20 view .LVU266
  70:../DaisyExamples/DaisySP//Source/Utility/delayline.h ****     {
 1236              		.loc 14 70 20 is_stmt 0 view .LVU267
 1237              	.LBE1029:
 157:singingbowl.h **** 
 1238              		.loc 13 157 9 is_stmt 1 view .LVU268
 157:singingbowl.h **** 
 1239              		.loc 13 157 9 is_stmt 0 view .LVU269
 1240              	.LBE1038:
 1241              	.LBE1053:
 1242              	.LBE762:
 1243              	.LBE761:
 1244              	.LBE760:
 1245              	.LBE759:
 1246              		.loc 15 76 5 is_stmt 1 view .LVU270
 1247              	.LBB3552:
 1248              	.LBB3545:
 1249              	.LBB1157:
 1250              	.LBB1148:
 1251              	.LBB1054:
 1252              	.LBB1039:
 1253              	.LBB1030:
 1254              	.LBI1024:
  75:/Applications/ARM/arm-none-eabi/include/c++/10.3.1/bits/std_abs.h ****   { return __builtin_fabsf(__x); }
 1255              		.loc 15 75 3 view .LVU271
 1256              	.LBB1026:
 1257              		.loc 15 76 5 view .LVU272
 1258              		.loc 15 76 5 is_stmt 0 view .LVU273
 1259              	.LBE1026:
 1260              	.LBE1030:
 1261              	.LBB1031:
 1262              	.LBI1020:
  14:singingbowl.h ****     float totalVelocity = (initialVelocity + relativeVelocity);
ARM GAS  /var/folders/1p/hl98tgf51p19ck4ldyh6xb6c0000gn/T//ccZqo17l.s 			page 43


 1263              		.loc 13 14 7 is_stmt 1 view .LVU274
 1264              	.LBB1022:
  15:singingbowl.h ****     if (totalVelocity == 0)
 1265              		.loc 13 15 5 view .LVU275
  15:singingbowl.h ****     if (totalVelocity == 0)
 1266              		.loc 13 15 11 is_stmt 0 view .LVU276
 1267 02fa E4EE876A 		vfma.f32	s13, s9, s14
 1268              	.LVL40:
  16:singingbowl.h ****         return 0;
 1269              		.loc 13 16 5 is_stmt 1 view .LVU277
 1270 02fe F5EE406A 		vcmp.f32	s13, #0
 1271 0302 F1EE10FA 		vmrs	APSR_nzcv, FPSCR
 1272 0306 01F07286 		beq	.L46
  19:singingbowl.h **** }
 1273              		.loc 13 19 9 view .LVU278
  19:singingbowl.h **** }
 1274              		.loc 13 19 71 is_stmt 0 view .LVU279
 1275 030a 9FED666A 		vldr.32	s12, .L73+8
 1276              	.LVL41:
  19:singingbowl.h **** }
 1277              		.loc 13 19 105 view .LVU280
 1278 030e 9FED667A 		vldr.32	s14, .L73+12
  19:singingbowl.h **** }
 1279              		.loc 13 19 71 view .LVU281
 1280 0312 65EE865A 		vmul.f32	s11, s11, s12
 1281              	.LVL42:
  19:singingbowl.h **** }
 1282              		.loc 13 19 90 view .LVU282
 1283 0316 85EEA66A 		vdiv.f32	s12, s11, s13
  19:singingbowl.h **** }
 1284              		.loc 13 19 105 view .LVU283
 1285 031a 36EE076A 		vadd.f32	s12, s12, s14
 1286              	.L20:
 1287              	.LVL43:
  19:singingbowl.h **** }
 1288              		.loc 13 19 105 view .LVU284
 1289              	.LBE1022:
 1290              	.LBE1031:
 157:singingbowl.h **** 
 1291              		.loc 13 157 23 view .LVU285
 1292 031e 634B     		ldr	r3, .L73+16
 160:singingbowl.h **** 
 1293              		.loc 13 160 27 view .LVU286
 1294 0320 66EE273A 		vmul.f32	s7, s12, s15
 1295              	.LBE1039:
 1296              	.LBE1054:
 1297              	.LBB1055:
 1298              	.LBB1056:
 1299              	.LBB1057:
 1300              	.LBB1058:
  78:singingbowl.h **** 
 1301              		.loc 13 78 39 view .LVU287
 1302 0324 99ED367A 		vldr.32	s14, [r9, #216]
 1303              	.LBE1058:
 1304              	.LBE1057:
 1305              	.LBB1069:
 1306              	.LBB1070:
ARM GAS  /var/folders/1p/hl98tgf51p19ck4ldyh6xb6c0000gn/T//ccZqo17l.s 			page 44


  65:../DaisyExamples/DaisySP//Source/Utility/delayline.h ****     }
 1307              		.loc 14 65 57 view .LVU288
 1308 0328 40F2DC5A 		movw	r10, #1500
  64:../DaisyExamples/DaisySP//Source/Utility/delayline.h ****         write_ptr_        = (write_ptr_ - 1 + max_size) % max_size;
 1309              		.loc 14 64 15 view .LVU289
 1310 032c 03F58051 		add	r1, r3, #4096
 1311              	.LBE1070:
 1312              	.LBE1069:
 1313              	.LBE1056:
 1314              	.LBE1055:
 1315              	.LBB1135:
 1316              	.LBB1040:
 157:singingbowl.h **** 
 1317              		.loc 13 157 23 view .LVU290
 1318 0330 83ED3D6A 		vstr.32	s12, [r3, #244]
 160:singingbowl.h **** 
 1319              		.loc 13 160 9 is_stmt 1 view .LVU291
 160:singingbowl.h **** 
 1320              		.loc 13 160 18 is_stmt 0 view .LVU292
 1321 0334 C3ED3E3A 		vstr.32	s7, [r3, #248]
 162:singingbowl.h ****     }
 1322              		.loc 13 162 9 is_stmt 1 view .LVU293
 1323              	.LVL44:
 162:singingbowl.h ****     }
 1324              		.loc 13 162 9 is_stmt 0 view .LVU294
 1325              	.LBE1040:
 1326              	.LBE1135:
 1327              	.LBB1136:
 1328              	.LBB1128:
 1329              	.LBB1079:
 1330              	.LBB1080:
  72:../DaisyExamples/DaisySP//Source/Utility/delayline.h ****         T b = line_[(write_ptr_ + delay_ + 1) % max_size];
 1331              		.loc 14 72 33 view .LVU295
 1332 0338 D1F84009 		ldr	r0, [r1, #2368]
 1333              	.LBE1080:
 1334              	.LBE1079:
 142:singingbowl.h **** 
 1335              		.loc 13 142 38 view .LVU296
 1336 033c 0A46     		mov	r2, r1
 1337              	.LBB1088:
 1338              	.LBB1071:
  64:../DaisyExamples/DaisySP//Source/Utility/delayline.h ****         write_ptr_        = (write_ptr_ - 1 + max_size) % max_size;
 1339              		.loc 14 64 15 view .LVU297
 1340 033e D1F83C39 		ldr	r3, [r1, #2364]
 1341              	.LBE1071:
 1342              	.LBE1088:
 142:singingbowl.h **** 
 1343              		.loc 13 142 38 view .LVU298
 1344 0342 01F51361 		add	r1, r1, #2352
 1345              	.LBB1089:
 1346              	.LBB1059:
  78:singingbowl.h **** 
 1347              		.loc 13 78 39 view .LVU299
 1348 0346 D9ED316A 		vldr.32	s13, [r9, #196]
 1349              	.LBE1059:
 1350              	.LBE1089:
 1351              	.LBB1090:
ARM GAS  /var/folders/1p/hl98tgf51p19ck4ldyh6xb6c0000gn/T//ccZqo17l.s 			page 45


 1352              	.LBB1072:
  65:../DaisyExamples/DaisySP//Source/Utility/delayline.h ****     }
 1353              		.loc 14 65 45 view .LVU300
 1354 034a 03F2DB5C 		addw	ip, r3, #1499
 1355 034e 91ED006A 		vldr.32	s12, [r1]
  65:../DaisyExamples/DaisySP//Source/Utility/delayline.h ****     }
 1356              		.loc 14 65 57 view .LVU301
 1357 0352 5349     		ldr	r1, .L73+4
 1358              	.LBE1072:
 1359              	.LBE1090:
 1360              	.LBB1091:
 1361              	.LBB1060:
  78:singingbowl.h **** 
 1362              		.loc 13 78 33 view .LVU302
 1363 0354 27EE667A 		vnmul.f32	s14, s14, s13
  78:singingbowl.h **** 
 1364              		.loc 13 78 29 view .LVU303
 1365 0358 D9ED355A 		vldr.32	s11, [r9, #212]
 1366 035c 36EE676A 		vsub.f32	s12, s12, s15
 1367              	.LBE1060:
 1368              	.LBE1091:
 1369              	.LBB1092:
 1370              	.LBB1073:
  65:../DaisyExamples/DaisySP//Source/Utility/delayline.h ****     }
 1371              		.loc 14 65 57 view .LVU304
 1372 0360 A1FB0CE1 		umull	lr, r1, r1, ip
 1373              	.LBE1073:
 1374              	.LBE1092:
 1375              	.LBB1093:
 1376              	.LBB1061:
  78:singingbowl.h **** 
 1377              		.loc 13 78 33 view .LVU305
 1378 0364 99ED305A 		vldr.32	s10, [r9, #192]
  78:singingbowl.h **** 
 1379              		.loc 13 78 45 view .LVU306
 1380 0368 D9ED344A 		vldr.32	s9, [r9, #208]
 1381              	.LBE1061:
 1382              	.LBE1093:
 1383              	.LBB1094:
 1384              	.LBB1095:
 1385              		.loc 15 76 31 view .LVU307
 1386 036c F0EEE76A 		vabs.f32	s13, s15
 1387              	.LBE1095:
 1388              	.LBE1094:
 1389              	.LBB1097:
 1390              	.LBB1074:
  65:../DaisyExamples/DaisySP//Source/Utility/delayline.h ****     }
 1391              		.loc 14 65 57 view .LVU308
 1392 0370 4909     		lsrs	r1, r1, #5
 1393              	.LBE1074:
 1394              	.LBE1097:
 1395              	.LBB1098:
 1396              	.LBB1062:
  78:singingbowl.h **** 
 1397              		.loc 13 78 33 view .LVU309
 1398 0372 A5EE257A 		vfma.f32	s14, s10, s11
  78:singingbowl.h **** 
ARM GAS  /var/folders/1p/hl98tgf51p19ck4ldyh6xb6c0000gn/T//ccZqo17l.s 			page 46


 1399              		.loc 13 78 45 view .LVU310
 1400 0376 99ED324A 		vldr.32	s8, [r9, #200]
 1401              	.LBE1062:
 1402              	.LBE1098:
 1403              	.LBE1128:
 1404              	.LBE1136:
 1405              		.loc 13 210 62 view .LVU311
 1406 037a B1EE675A 		vneg.f32	s10, s15
 1407              	.LVL45:
 211:singingbowl.h ****         over_output += over_modals[1].Process(over_output) * -1.0f;
 1408              		.loc 13 211 9 is_stmt 1 view .LVU312
 1409              	.LBB1137:
 1410              	.LBI1055:
 137:singingbowl.h ****         // Mix Source with Feedback
 1411              		.loc 13 137 11 view .LVU313
 1412              	.LBB1129:
 142:singingbowl.h **** 
 1413              		.loc 13 142 9 view .LVU314
 148:singingbowl.h **** 
 1414              		.loc 13 148 9 view .LVU315
 1415              	.LBB1099:
 1416              	.LBI1057:
  77:singingbowl.h ****         float output = b_ * y1_ - a1_ * y2_ - a2_ * x2_ + input;
 1417              		.loc 13 77 11 view .LVU316
 1418              	.LBB1063:
  78:singingbowl.h **** 
 1419              		.loc 13 78 9 view .LVU317
 1420              	.LBE1063:
 1421              	.LBE1099:
 1422              	.LBB1100:
 1423              	.LBB1075:
  65:../DaisyExamples/DaisySP//Source/Utility/delayline.h ****     }
 1424              		.loc 14 65 57 is_stmt 0 view .LVU318
 1425 037e 0AFB11C1 		mls	r1, r10, r1, ip
 1426              	.LBE1075:
 1427              	.LBE1100:
 1428              	.LBB1101:
 1429              	.LBB1064:
  85:singingbowl.h ****         y1_ = output;
 1430              		.loc 13 85 13 view .LVU319
 1431 0382 C9ED365A 		vstr.32	s11, [r9, #216]
 1432              	.LBE1064:
 1433              	.LBE1101:
 1434              	.LBB1102:
 1435              	.LBB1081:
  72:../DaisyExamples/DaisySP//Source/Utility/delayline.h ****         T b = line_[(write_ptr_ + delay_ + 1) % max_size];
 1436              		.loc 14 72 33 view .LVU320
 1437 0386 0844     		add	r0, r0, r1
 1438              	.LBE1081:
 1439              	.LBE1102:
 1440              	.LBB1103:
 1441              	.LBB1076:
  65:../DaisyExamples/DaisySP//Source/Utility/delayline.h ****     }
 1442              		.loc 14 65 27 view .LVU321
 1443 0388 C2F83C19 		str	r1, [r2, #2364]
  64:../DaisyExamples/DaisySP//Source/Utility/delayline.h ****         write_ptr_        = (write_ptr_ - 1 + max_size) % max_size;
 1444              		.loc 14 64 27 view .LVU322
ARM GAS  /var/folders/1p/hl98tgf51p19ck4ldyh6xb6c0000gn/T//ccZqo17l.s 			page 47


 1445 038c 02F63C11 		addw	r1, r2, #2364
 1446              	.LBE1076:
 1447              	.LBE1103:
 1448              	.LBB1104:
 1449              	.LBB1082:
  72:../DaisyExamples/DaisySP//Source/Utility/delayline.h ****         T b = line_[(write_ptr_ + delay_ + 1) % max_size];
 1450              		.loc 14 72 43 view .LVU323
 1451 0390 434A     		ldr	r2, .L73+4
  73:../DaisyExamples/DaisySP//Source/Utility/delayline.h ****         return a + (b - a) * frac_;
 1452              		.loc 14 73 42 view .LVU324
 1453 0392 00F1010E 		add	lr, r0, #1
 1454              	.LBE1082:
 1455              	.LBE1104:
 1456              	.LBB1105:
 1457              	.LBB1065:
  78:singingbowl.h **** 
 1458              		.loc 13 78 45 view .LVU325
 1459 0396 A4EE647A 		vfms.f32	s14, s8, s9
 1460              	.LBE1065:
 1461              	.LBE1105:
 1462              	.LBB1106:
 1463              	.LBB1077:
  64:../DaisyExamples/DaisySP//Source/Utility/delayline.h ****         write_ptr_        = (write_ptr_ - 1 + max_size) % max_size;
 1464              		.loc 14 64 27 view .LVU326
 1465 039a 01EB830C 		add	ip, r1, r3, lsl #2
 1466              	.LBE1077:
 1467              	.LBE1106:
 1468              	.LBB1107:
 1469              	.LBB1083:
  72:../DaisyExamples/DaisySP//Source/Utility/delayline.h ****         T b = line_[(write_ptr_ + delay_ + 1) % max_size];
 1470              		.loc 14 72 43 view .LVU327
 1471 039e A2FB00B3 		umull	fp, r3, r2, r0
  73:../DaisyExamples/DaisySP//Source/Utility/delayline.h ****         return a + (b - a) * frac_;
 1472              		.loc 14 73 47 view .LVU328
 1473 03a2 A2FB0EB2 		umull	fp, r2, r2, lr
  72:../DaisyExamples/DaisySP//Source/Utility/delayline.h ****         T b = line_[(write_ptr_ + delay_ + 1) % max_size];
 1474              		.loc 14 72 43 view .LVU329
 1475 03a6 5B09     		lsrs	r3, r3, #5
  73:../DaisyExamples/DaisySP//Source/Utility/delayline.h ****         return a + (b - a) * frac_;
 1476              		.loc 14 73 47 view .LVU330
 1477 03a8 5209     		lsrs	r2, r2, #5
  72:../DaisyExamples/DaisySP//Source/Utility/delayline.h ****         T b = line_[(write_ptr_ + delay_ + 1) % max_size];
 1478              		.loc 14 72 43 view .LVU331
 1479 03aa 0AFB1303 		mls	r3, r10, r3, r0
  73:../DaisyExamples/DaisySP//Source/Utility/delayline.h ****         return a + (b - a) * frac_;
 1480              		.loc 14 73 47 view .LVU332
 1481 03ae 0AFB12EE 		mls	lr, r10, r2, lr
 1482              	.LBE1083:
 1483              	.LBE1107:
 1484              	.LBB1108:
 1485              	.LBB1066:
  78:singingbowl.h **** 
 1486              		.loc 13 78 15 view .LVU333
 1487 03b2 37EE067A 		vadd.f32	s14, s14, s12
 1488              	.LVL46:
  81:singingbowl.h ****         x1_ = input;
 1489              		.loc 13 81 9 is_stmt 1 view .LVU334
ARM GAS  /var/folders/1p/hl98tgf51p19ck4ldyh6xb6c0000gn/T//ccZqo17l.s 			page 48


  81:singingbowl.h ****         x1_ = input;
 1490              		.loc 13 81 13 is_stmt 0 view .LVU335
 1491 03b6 D9F8CC20 		ldr	r2, [r9, #204]	@ float
 1492              	.LBE1066:
 1493              	.LBE1108:
 1494              	.LBB1109:
 1495              	.LBB1084:
  72:../DaisyExamples/DaisySP//Source/Utility/delayline.h ****         T b = line_[(write_ptr_ + delay_ + 1) % max_size];
 1496              		.loc 14 72 11 view .LVU336
 1497 03ba 01EB8303 		add	r3, r1, r3, lsl #2
  73:../DaisyExamples/DaisySP//Source/Utility/delayline.h ****         return a + (b - a) * frac_;
 1498              		.loc 14 73 11 view .LVU337
 1499 03be 01EB8E01 		add	r1, r1, lr, lsl #2
 1500              	.LBE1084:
 1501              	.LBE1109:
 1502              	.LBB1110:
 1503              	.LBB1067:
  82:singingbowl.h **** 
 1504              		.loc 13 82 13 view .LVU338
 1505 03c2 89ED336A 		vstr.32	s12, [r9, #204]
  81:singingbowl.h ****         x1_ = input;
 1506              		.loc 13 81 13 view .LVU339
 1507 03c6 C9F8D020 		str	r2, [r9, #208]	@ float
  82:singingbowl.h **** 
 1508              		.loc 13 82 9 is_stmt 1 view .LVU340
  85:singingbowl.h ****         y1_ = output;
 1509              		.loc 13 85 9 view .LVU341
  86:singingbowl.h **** 
 1510              		.loc 13 86 9 view .LVU342
  88:singingbowl.h ****     }
 1511              		.loc 13 88 9 view .LVU343
 1512              	.LVL47:
  88:singingbowl.h ****     }
 1513              		.loc 13 88 9 is_stmt 0 view .LVU344
 1514              	.LBE1067:
 1515              	.LBE1110:
 151:singingbowl.h **** 
 1516              		.loc 13 151 9 is_stmt 1 view .LVU345
 1517              	.LBB1111:
 1518              	.LBI1069:
  62:../DaisyExamples/DaisySP//Source/Utility/delayline.h ****     {
 1519              		.loc 14 62 17 view .LVU346
  62:../DaisyExamples/DaisySP//Source/Utility/delayline.h ****     {
 1520              		.loc 14 62 17 is_stmt 0 view .LVU347
 1521              	.LBE1111:
 154:singingbowl.h **** 
 1522              		.loc 13 154 9 is_stmt 1 view .LVU348
 1523              	.LBB1112:
 1524              	.LBI1079:
  70:../DaisyExamples/DaisySP//Source/Utility/delayline.h ****     {
 1525              		.loc 14 70 20 view .LVU349
 1526              	.LBB1085:
 1527              		.loc 14 74 30 is_stmt 0 view .LVU350
 1528 03ca 394A     		ldr	r2, .L73+20
 1529              	.LBE1085:
 1530              	.LBE1112:
 1531              	.LBB1113:
ARM GAS  /var/folders/1p/hl98tgf51p19ck4ldyh6xb6c0000gn/T//ccZqo17l.s 			page 49


 1532              	.LBB1068:
  86:singingbowl.h **** 
 1533              		.loc 13 86 13 view .LVU351
 1534 03cc 89ED357A 		vstr.32	s14, [r9, #212]
 1535              	.LBE1068:
 1536              	.LBE1113:
 1537              	.LBB1114:
 1538              	.LBB1078:
  64:../DaisyExamples/DaisySP//Source/Utility/delayline.h ****         write_ptr_        = (write_ptr_ - 1 + max_size) % max_size;
 1539              		.loc 14 64 27 view .LVU352
 1540 03d0 8CED027A 		vstr.32	s14, [ip, #8]
 1541              	.LBE1078:
 1542              	.LBE1114:
 1543              	.LBB1115:
 1544              	.LBB1086:
  72:../DaisyExamples/DaisySP//Source/Utility/delayline.h ****         T b = line_[(write_ptr_ + delay_ + 1) % max_size];
 1545              		.loc 14 72 11 view .LVU353
 1546 03d4 93ED027A 		vldr.32	s14, [r3, #8]
 1547              	.LVL48:
 1548              		.loc 14 74 30 view .LVU354
 1549 03d8 02F63813 		addw	r3, r2, #2360
 1550              		.loc 14 74 23 view .LVU355
 1551 03dc 91ED026A 		vldr.32	s12, [r1, #8]
 1552              	.LVL49:
 1553              		.loc 14 74 30 view .LVU356
 1554 03e0 D3ED005A 		vldr.32	s11, [r3]
 1555              	.LBE1086:
 1556              	.LBE1115:
 157:singingbowl.h **** 
 1557              		.loc 13 157 66 view .LVU357
 1558 03e4 02F63413 		addw	r3, r2, #2356
 1559              	.LBB1116:
 1560              	.LBB1087:
 1561              		.loc 14 74 23 view .LVU358
 1562 03e8 36EE476A 		vsub.f32	s12, s12, s14
 1563              		.loc 14 74 30 view .LVU359
 1564 03ec A6EE257A 		vfma.f32	s14, s12, s11
 1565              	.LVL50:
 1566              		.loc 14 74 30 view .LVU360
 1567              	.LBE1087:
 1568              	.LBE1116:
 157:singingbowl.h **** 
 1569              		.loc 13 157 9 is_stmt 1 view .LVU361
 1570              	.LBB1117:
 1571              	.LBI1094:
  75:/Applications/ARM/arm-none-eabi/include/c++/10.3.1/bits/std_abs.h ****   { return __builtin_fabsf(__x); }
 1572              		.loc 15 75 3 view .LVU362
 1573              	.LBB1096:
 1574              		.loc 15 76 5 view .LVU363
 1575              		.loc 15 76 5 is_stmt 0 view .LVU364
 1576              	.LBE1096:
 1577              	.LBE1117:
 157:singingbowl.h **** 
 1578              		.loc 13 157 66 view .LVU365
 1579 03f0 93ED006A 		vldr.32	s12, [r3]
 157:singingbowl.h **** 
 1580              		.loc 13 157 39 view .LVU366
ARM GAS  /var/folders/1p/hl98tgf51p19ck4ldyh6xb6c0000gn/T//ccZqo17l.s 			page 50


 1581 03f4 66EE866A 		vmul.f32	s13, s13, s12
 1582              	.LVL51:
 1583              	.LBB1118:
 1584              	.LBI1118:
  75:/Applications/ARM/arm-none-eabi/include/c++/10.3.1/bits/std_abs.h ****   { return __builtin_fabsf(__x); }
 1585              		.loc 15 75 3 is_stmt 1 view .LVU367
 1586              	.LBB1119:
 1587              		.loc 15 76 5 view .LVU368
 1588              		.loc 15 76 5 is_stmt 0 view .LVU369
 1589              	.LBE1119:
 1590              	.LBE1118:
 1591              	.LBB1121:
 1592              	.LBI1121:
  14:singingbowl.h ****     float totalVelocity = (initialVelocity + relativeVelocity);
 1593              		.loc 13 14 7 is_stmt 1 view .LVU370
 1594              	.LBB1122:
  15:singingbowl.h ****     if (totalVelocity == 0)
 1595              		.loc 13 15 5 view .LVU371
  15:singingbowl.h ****     if (totalVelocity == 0)
 1596              		.loc 13 15 11 is_stmt 0 view .LVU372
 1597 03f8 F0EE665A 		vmov.f32	s11, s13
 1598              	.LBE1122:
 1599              	.LBE1121:
 1600              	.LBB1125:
 1601              	.LBB1120:
 1602              		.loc 15 76 31 view .LVU373
 1603 03fc 77EE677A 		vsub.f32	s15, s14, s15
 1604              	.LVL52:
 1605              		.loc 15 76 31 view .LVU374
 1606 0400 F0EEE77A 		vabs.f32	s15, s15
 1607              	.LBE1120:
 1608              	.LBE1125:
 1609              	.LBB1126:
 1610              	.LBB1123:
  15:singingbowl.h ****     if (totalVelocity == 0)
 1611              		.loc 13 15 11 view .LVU375
 1612 0404 E6EE275A 		vfma.f32	s11, s12, s15
 1613              	.LVL53:
  16:singingbowl.h ****         return 0;
 1614              		.loc 13 16 5 is_stmt 1 view .LVU376
 1615 0408 F5EE405A 		vcmp.f32	s11, #0
 1616 040c F1EE10FA 		vmrs	APSR_nzcv, FPSCR
 1617 0410 01F0E985 		beq	.L47
  19:singingbowl.h **** }
 1618              		.loc 13 19 9 view .LVU377
  19:singingbowl.h **** }
 1619              		.loc 13 19 71 is_stmt 0 view .LVU378
 1620 0414 DFED237A 		vldr.32	s15, .L73+8
  19:singingbowl.h **** }
 1621              		.loc 13 19 105 view .LVU379
 1622 0418 9FED236A 		vldr.32	s12, .L73+12
  19:singingbowl.h **** }
 1623              		.loc 13 19 71 view .LVU380
 1624 041c 66EEA76A 		vmul.f32	s13, s13, s15
 1625              	.LVL54:
  19:singingbowl.h **** }
 1626              		.loc 13 19 90 view .LVU381
ARM GAS  /var/folders/1p/hl98tgf51p19ck4ldyh6xb6c0000gn/T//ccZqo17l.s 			page 51


 1627 0420 C6EEA57A 		vdiv.f32	s15, s13, s11
  19:singingbowl.h **** }
 1628              		.loc 13 19 105 view .LVU382
 1629 0424 77EE867A 		vadd.f32	s15, s15, s12
 1630              	.L21:
 1631              	.LVL55:
  19:singingbowl.h **** }
 1632              		.loc 13 19 105 view .LVU383
 1633              	.LBE1123:
 1634              	.LBE1126:
 1635              	.LBE1129:
 1636              	.LBE1137:
 1637              	.LBE1148:
 1638              	.LBE1157:
 1639              	.LBB1158:
 1640              	.LBB1159:
 1641              		.file 16 "../DaisyExamples/libDaisy//src/hid/switch.h"
   1:../DaisyExamples/libDaisy//src/hid/switch.h **** #pragma once
   2:../DaisyExamples/libDaisy//src/hid/switch.h **** #ifndef DSY_SWITCH_H
   3:../DaisyExamples/libDaisy//src/hid/switch.h **** #define DSY_SWITCH_H
   4:../DaisyExamples/libDaisy//src/hid/switch.h **** #include "daisy_core.h"
   5:../DaisyExamples/libDaisy//src/hid/switch.h **** #include "per/gpio.h"
   6:../DaisyExamples/libDaisy//src/hid/switch.h **** #include "sys/system.h"
   7:../DaisyExamples/libDaisy//src/hid/switch.h **** 
   8:../DaisyExamples/libDaisy//src/hid/switch.h **** namespace daisy
   9:../DaisyExamples/libDaisy//src/hid/switch.h **** {
  10:../DaisyExamples/libDaisy//src/hid/switch.h **** /** 
  11:../DaisyExamples/libDaisy//src/hid/switch.h ****     Generic Class for handling momentary/latching switches \n 
  12:../DaisyExamples/libDaisy//src/hid/switch.h ****     Inspired/influenced by Mutable Instruments (pichenettes) Switch classes
  13:../DaisyExamples/libDaisy//src/hid/switch.h ****     @author Stephen Hensley
  14:../DaisyExamples/libDaisy//src/hid/switch.h ****     @date December 2019
  15:../DaisyExamples/libDaisy//src/hid/switch.h ****     @ingroup controls
  16:../DaisyExamples/libDaisy//src/hid/switch.h **** */
  17:../DaisyExamples/libDaisy//src/hid/switch.h **** class Switch
  18:../DaisyExamples/libDaisy//src/hid/switch.h **** {
  19:../DaisyExamples/libDaisy//src/hid/switch.h ****   public:
  20:../DaisyExamples/libDaisy//src/hid/switch.h ****     /** Specifies the expected behavior of the switch */
  21:../DaisyExamples/libDaisy//src/hid/switch.h ****     enum Type
  22:../DaisyExamples/libDaisy//src/hid/switch.h ****     {
  23:../DaisyExamples/libDaisy//src/hid/switch.h ****         TYPE_TOGGLE,    /**< & */
  24:../DaisyExamples/libDaisy//src/hid/switch.h ****         TYPE_MOMENTARY, /**< & */
  25:../DaisyExamples/libDaisy//src/hid/switch.h ****     };
  26:../DaisyExamples/libDaisy//src/hid/switch.h ****     /** Specifies whether the pressed is HIGH or LOW. */
  27:../DaisyExamples/libDaisy//src/hid/switch.h ****     enum Polarity
  28:../DaisyExamples/libDaisy//src/hid/switch.h ****     {
  29:../DaisyExamples/libDaisy//src/hid/switch.h ****         POLARITY_NORMAL,   /**< & */
  30:../DaisyExamples/libDaisy//src/hid/switch.h ****         POLARITY_INVERTED, /**< & */
  31:../DaisyExamples/libDaisy//src/hid/switch.h ****     };
  32:../DaisyExamples/libDaisy//src/hid/switch.h **** 
  33:../DaisyExamples/libDaisy//src/hid/switch.h ****     /** Specifies whether to use built-in Pull Up/Down resistors to hold button at a given state wh
  34:../DaisyExamples/libDaisy//src/hid/switch.h ****     enum Pull
  35:../DaisyExamples/libDaisy//src/hid/switch.h ****     {
  36:../DaisyExamples/libDaisy//src/hid/switch.h ****         PULL_UP,   /**< & */
  37:../DaisyExamples/libDaisy//src/hid/switch.h ****         PULL_DOWN, /**< & */
  38:../DaisyExamples/libDaisy//src/hid/switch.h ****         PULL_NONE, /**< & */
  39:../DaisyExamples/libDaisy//src/hid/switch.h ****     };
  40:../DaisyExamples/libDaisy//src/hid/switch.h **** 
ARM GAS  /var/folders/1p/hl98tgf51p19ck4ldyh6xb6c0000gn/T//ccZqo17l.s 			page 52


  41:../DaisyExamples/libDaisy//src/hid/switch.h ****     Switch() {}
  42:../DaisyExamples/libDaisy//src/hid/switch.h ****     ~Switch() {}
  43:../DaisyExamples/libDaisy//src/hid/switch.h **** 
  44:../DaisyExamples/libDaisy//src/hid/switch.h ****     /** 
  45:../DaisyExamples/libDaisy//src/hid/switch.h ****     Initializes the switch object with a given port/pin combo.
  46:../DaisyExamples/libDaisy//src/hid/switch.h ****     \param pin port/pin object to tell the switch which hardware pin to use.
  47:../DaisyExamples/libDaisy//src/hid/switch.h ****     \param update_rate Does nothing. Backwards compatibility until next breaking update.
  48:../DaisyExamples/libDaisy//src/hid/switch.h ****     \param t switch type -- Default: TYPE_MOMENTARY
  49:../DaisyExamples/libDaisy//src/hid/switch.h ****     \param pol switch polarity -- Default: POLARITY_INVERTED
  50:../DaisyExamples/libDaisy//src/hid/switch.h ****     \param pu switch pull up/down -- Default: PULL_UP
  51:../DaisyExamples/libDaisy//src/hid/switch.h ****     */
  52:../DaisyExamples/libDaisy//src/hid/switch.h ****     void
  53:../DaisyExamples/libDaisy//src/hid/switch.h ****     Init(dsy_gpio_pin pin, float update_rate, Type t, Polarity pol, Pull pu);
  54:../DaisyExamples/libDaisy//src/hid/switch.h **** 
  55:../DaisyExamples/libDaisy//src/hid/switch.h ****     /**
  56:../DaisyExamples/libDaisy//src/hid/switch.h ****        Simplified Init.
  57:../DaisyExamples/libDaisy//src/hid/switch.h ****        \param pin port/pin object to tell the switch which hardware pin to use.
  58:../DaisyExamples/libDaisy//src/hid/switch.h ****        \param update_rate Left for backwards compatibility until next breaking change.
  59:../DaisyExamples/libDaisy//src/hid/switch.h ****     */
  60:../DaisyExamples/libDaisy//src/hid/switch.h ****     void Init(dsy_gpio_pin pin, float update_rate = 0.f);
  61:../DaisyExamples/libDaisy//src/hid/switch.h **** 
  62:../DaisyExamples/libDaisy//src/hid/switch.h ****     /** 
  63:../DaisyExamples/libDaisy//src/hid/switch.h ****     Called at update_rate to debounce and handle timing for the switch.
  64:../DaisyExamples/libDaisy//src/hid/switch.h ****     In order for events not to be missed, its important that the Edge/Pressed checks
  65:../DaisyExamples/libDaisy//src/hid/switch.h ****     be made at the same rate as the debounce function is being called.
  66:../DaisyExamples/libDaisy//src/hid/switch.h ****     */
  67:../DaisyExamples/libDaisy//src/hid/switch.h ****     void Debounce();
  68:../DaisyExamples/libDaisy//src/hid/switch.h **** 
  69:../DaisyExamples/libDaisy//src/hid/switch.h ****     /** \return true if a button was just pressed. */
  70:../DaisyExamples/libDaisy//src/hid/switch.h ****     inline bool RisingEdge() const { return updated_ ? state_ == 0x7f : false; }
  71:../DaisyExamples/libDaisy//src/hid/switch.h **** 
  72:../DaisyExamples/libDaisy//src/hid/switch.h ****     /** \return true if the button was just released */
  73:../DaisyExamples/libDaisy//src/hid/switch.h ****     inline bool FallingEdge() const
  74:../DaisyExamples/libDaisy//src/hid/switch.h ****     {
  75:../DaisyExamples/libDaisy//src/hid/switch.h ****         return updated_ ? state_ == 0x80 : false;
  76:../DaisyExamples/libDaisy//src/hid/switch.h ****     }
  77:../DaisyExamples/libDaisy//src/hid/switch.h **** 
  78:../DaisyExamples/libDaisy//src/hid/switch.h ****     /** \return true if the button is held down (or if the toggle is on) */
  79:../DaisyExamples/libDaisy//src/hid/switch.h ****     inline bool Pressed() const { return state_ == 0xff; }
 1642              		.loc 16 79 52 view .LVU384
 1643 0428 224B     		ldr	r3, .L73+24
 1644              	.LBE1159:
 1645              	.LBE1158:
 1646              	.LBB1162:
 1647              	.LBB1149:
 1648              	.LBB1138:
 1649              	.LBB1130:
 160:singingbowl.h **** 
 1650              		.loc 13 160 27 view .LVU385
 1651 042a 67EE876A 		vmul.f32	s13, s15, s14
 157:singingbowl.h **** 
 1652              		.loc 13 157 23 view .LVU386
 1653 042e 204A     		ldr	r2, .L73+20
 1654              	.LBE1130:
 1655              	.LBE1138:
 212:singingbowl.h ****         //over_output += over_modals[2].Process(over_output) * -1.0f;
 213:singingbowl.h ****         //over_output += over_modals[3].Process(over_output) * -1.0f;
ARM GAS  /var/folders/1p/hl98tgf51p19ck4ldyh6xb6c0000gn/T//ccZqo17l.s 			page 53


 214:singingbowl.h **** 
 215:singingbowl.h ****         // Process all of the other filters
 216:singingbowl.h **** //        for (int i = 0; i < 3; i++) {
 217:singingbowl.h **** //
 218:singingbowl.h **** //        }
 219:singingbowl.h **** //        over_output *= 0.25f;
 220:singingbowl.h **** //        under_output *= 0.25f;
 221:singingbowl.h **** 
 222:singingbowl.h ****         // Return output and manage gain
 223:singingbowl.h ****         return (under_output + over_output);
 1656              		.loc 13 223 43 view .LVU387
 1657 0430 35EE477A 		vsub.f32	s14, s10, s14
 1658              	.LVL56:
 1659              		.loc 13 223 43 view .LVU388
 1660              	.LBE1149:
 1661              	.LBE1162:
 1662              	.LBB1163:
 1663              	.LBB1160:
 1664              		.loc 16 79 52 view .LVU389
 1665 0434 997E     		ldrb	r1, [r3, #26]	@ zero_extendqisi2
 1666              	.LVL57:
 1667              		.loc 16 79 52 view .LVU390
 1668              	.LBE1160:
 1669              	.LBE1163:
  90:source.cpp    ****         // Create Filtered Noise
  91:source.cpp    **** 
  92:source.cpp    ****         float noiseOut = NoiseSource.Process();
  93:source.cpp    ****         LowPassTable[0].Process(noiseOut);
  94:source.cpp    ****         LowPassTable[1].Process(noiseOut);
  95:source.cpp    ****         LowPassTable[2].Process(noiseOut);
  96:source.cpp    ****         LowPassTable[3].Process(noiseOut);
  97:source.cpp    ****         LowPassTable[4].Process(noiseOut);
  98:source.cpp    ****         LowPassTable[5].Process(noiseOut);
  99:source.cpp    **** 
 100:source.cpp    ****         float filteredNoise[] = {LowPassTable[0].Low(), LowPassTable[1].Low(), LowPassTable[2].Low(
 101:source.cpp    ****                                  LowPassTable[3].Low(), LowPassTable[4].Low(), LowPassTable[5].Low(
 102:source.cpp    **** 
 103:source.cpp    ****         float sineOut = ExciterTable.Process(1.0f - SineWave.Process());
 104:source.cpp    **** 
 105:source.cpp    ****         float lPortOut = lPort.Process(lAmp);
 106:source.cpp    ****         float rPortOut = rPort.Process(rAmp);
 107:source.cpp    **** 
 108:source.cpp    **** 
 109:source.cpp    ****         // Process Resonantors. AVoid using for loop inside For loop.
 110:source.cpp    ****         // Close encounters of the third kind
 111:source.cpp    ****         float output = Bowls[0].Process(
 112:source.cpp    ****                 filteredNoise[0] * sineOut * simpleEnv[0].Process(buttons[0].Pressed()) * lPortOut)
 113:source.cpp    ****         output += Bowls[1].Process(
 114:source.cpp    ****                 filteredNoise[1] * sineOut * simpleEnv[1].Process(buttons[1].Pressed()) * lPortOut)
 1670              		.loc 11 114 34 view .LVU391
 1671 0436 2AEE0BAA 		vmul.f32	s20, s20, s22
 1672              	.LVL58:
 1673              	.LBB1164:
 1674              	.LBB1150:
 1675              	.LBB1139:
 1676              	.LBB1131:
 157:singingbowl.h **** 
ARM GAS  /var/folders/1p/hl98tgf51p19ck4ldyh6xb6c0000gn/T//ccZqo17l.s 			page 54


 1677              		.loc 13 157 23 view .LVU392
 1678 043a 02F62C13 		addw	r3, r2, #2348
 1679              	.LBE1131:
 1680              	.LBE1139:
 1681              	.LBE1150:
 1682              	.LBE1164:
 1683              		.loc 11 114 66 view .LVU393
 1684 043e 1E48     		ldr	r0, .L73+28
 1685              	.LVL59:
 1686              		.loc 11 114 66 view .LVU394
 1687 0440 A1F1FF01 		sub	r1, #255
 1688              	.LBB1165:
 1689              	.LBB1151:
 1690              		.loc 13 223 43 view .LVU395
 1691 0444 37EE0CCA 		vadd.f32	s24, s14, s24
 1692              	.LVL60:
 1693              	.LBB1140:
 1694              	.LBB1132:
 157:singingbowl.h **** 
 1695              		.loc 13 157 23 view .LVU396
 1696 0448 C3ED007A 		vstr.32	s15, [r3]
 160:singingbowl.h **** 
 1697              		.loc 13 160 9 is_stmt 1 view .LVU397
 160:singingbowl.h **** 
 1698              		.loc 13 160 18 is_stmt 0 view .LVU398
 1699 044c 02F51363 		add	r3, r2, #2352
 1700              	.LBE1132:
 1701              	.LBE1140:
 1702              	.LBE1151:
 1703              	.LBE1165:
 1704              		.loc 11 114 66 view .LVU399
 1705 0450 B1FA81F1 		clz	r1, r1
 1706              	.LBB1166:
 1707              	.LBB1152:
 1708              	.LBB1141:
 1709              	.LBB1133:
 160:singingbowl.h **** 
 1710              		.loc 13 160 18 view .LVU400
 1711 0454 C3ED006A 		vstr.32	s13, [r3]
 162:singingbowl.h ****     }
 1712              		.loc 13 162 9 is_stmt 1 view .LVU401
 1713              	.LVL61:
 162:singingbowl.h ****     }
 1714              		.loc 13 162 9 is_stmt 0 view .LVU402
 1715              	.LBE1133:
 1716              	.LBE1141:
 1717              		.loc 13 223 9 is_stmt 1 view .LVU403
 1718              		.loc 13 223 9 is_stmt 0 view .LVU404
 1719              	.LBE1152:
 1720              	.LBE1166:
 113:source.cpp    ****                 filteredNoise[1] * sineOut * simpleEnv[1].Process(buttons[1].Pressed()) * lPortOut)
 1721              		.loc 11 113 9 is_stmt 1 view .LVU405
 1722              	.LBB1167:
 1723              	.LBI1158:
 1724              		.loc 16 79 17 view .LVU406
 1725              	.LBB1161:
 1726              		.loc 16 79 35 view .LVU407
ARM GAS  /var/folders/1p/hl98tgf51p19ck4ldyh6xb6c0000gn/T//ccZqo17l.s 			page 55


 1727              		.loc 16 79 35 is_stmt 0 view .LVU408
 1728              	.LBE1161:
 1729              	.LBE1167:
 1730              		.loc 11 114 66 view .LVU409
 1731 0458 4909     		lsrs	r1, r1, #5
 1732 045a FFF7FEFF 		bl	_ZN7daisysp4Adsr7ProcessEb
 1733              	.LVL62:
 1734              	.LBB1168:
 1735              	.LBB1169:
 1736              	.LBB1170:
 1737              	.LBB1171:
 142:singingbowl.h **** 
 1738              		.loc 13 142 21 view .LVU410
 1739 045e 1748     		ldr	r0, .L73+32
 1740              	.LBE1171:
 1741              	.LBE1170:
 1742              	.LBE1169:
 1743              	.LBE1168:
 1744              		.loc 11 114 44 view .LVU411
 1745 0460 2AEE007A 		vmul.f32	s14, s20, s0
 1746              	.LBB1538:
 1747              	.LBB1530:
 1748              	.LBB1252:
 1749              	.LBB1248:
 1750              	.LBB1172:
 1751              	.LBB1173:
  64:../DaisyExamples/DaisySP//Source/Utility/delayline.h ****         write_ptr_        = (write_ptr_ - 1 + max_size) % max_size;
 1752              		.loc 14 64 15 view .LVU412
 1753 0464 D0F8F021 		ldr	r2, [r0, #496]
 1754              	.LBE1173:
 1755              	.LBE1172:
 1756              	.LBB1182:
 1757              	.LBB1183:
  78:singingbowl.h **** 
 1758              		.loc 13 78 41 view .LVU413
 1759 0468 00F58051 		add	r1, r0, #4096
 1760              	.LBE1183:
 1761              	.LBE1182:
 1762              	.LBB1197:
 1763              	.LBB1198:
 1764              		.loc 14 74 30 view .LVU414
 1765 046c D0ED7B4A 		vldr.32	s9, [r0, #492]
 1766              	.LBE1198:
 1767              	.LBE1197:
 1768              	.LBB1205:
 1769              	.LBB1174:
  65:../DaisyExamples/DaisySP//Source/Utility/delayline.h ****     }
 1770              		.loc 14 65 45 view .LVU415
 1771 0470 02F2DB5A 		addw	r10, r2, #1499
 1772              	.LBE1174:
 1773              	.LBE1205:
 1774              	.LBB1206:
 1775              	.LBB1184:
  78:singingbowl.h **** 
 1776              		.loc 13 78 41 view .LVU416
 1777 0474 01F68C13 		addw	r3, r1, #2444
 1778              	.LBE1184:
ARM GAS  /var/folders/1p/hl98tgf51p19ck4ldyh6xb6c0000gn/T//ccZqo17l.s 			page 56


 1779              	.LBE1206:
 1780              	.LBB1207:
 1781              	.LBB1175:
  64:../DaisyExamples/DaisySP//Source/Utility/delayline.h ****         write_ptr_        = (write_ptr_ - 1 + max_size) % max_size;
 1782              		.loc 14 64 27 view .LVU417
 1783 0478 00EB820C 		add	ip, r0, r2, lsl #2
 1784              	.LBE1175:
 1785              	.LBE1207:
 1786              	.LBB1208:
 1787              	.LBB1185:
  78:singingbowl.h **** 
 1788              		.loc 13 78 35 view .LVU418
 1789 047c 01F67811 		addw	r1, r1, #2424
  78:singingbowl.h **** 
 1790              		.loc 13 78 29 view .LVU419
 1791 0480 00F58052 		add	r2, r0, #4096
  78:singingbowl.h **** 
 1792              		.loc 13 78 39 view .LVU420
 1793 0484 D3ED007A 		vldr.32	s15, [r3]
 1794 0488 D1ED005A 		vldr.32	s11, [r1]
  78:singingbowl.h **** 
 1795              		.loc 13 78 24 view .LVU421
 1796 048c 183B     		subs	r3, r3, #24
  78:singingbowl.h **** 
 1797              		.loc 13 78 29 view .LVU422
 1798 048e 02F68812 		addw	r2, r2, #2440
 1799              	.LBE1185:
 1800              	.LBE1208:
 1801              	.LBB1209:
 1802              	.LBB1176:
  65:../DaisyExamples/DaisySP//Source/Utility/delayline.h ****     }
 1803              		.loc 14 65 57 view .LVU423
 1804 0492 0349     		ldr	r1, .L73+4
 1805              	.LBE1176:
 1806              	.LBE1209:
 1807              	.LBB1210:
 1808              	.LBB1186:
  78:singingbowl.h **** 
 1809              		.loc 13 78 33 view .LVU424
 1810 0494 67EEE57A 		vnmul.f32	s15, s15, s11
 1811 0498 12E0     		b	.L74
 1812              	.L75:
 1813 049a 00BF     		.align	2
 1814              	.L73:
 1815 049c 00100000 		.word	Bowls+4096
 1816 04a0 F1197605 		.word	91625969
 1817 04a4 90C2753D 		.word	1031127696
 1818 04a8 6666663F 		.word	1063675494
 1819 04ac 00600000 		.word	Bowls+24576
 1820 04b0 00700000 		.word	Bowls+28672
 1821 04b4 00000000 		.word	.LANCHOR0
 1822 04b8 30000000 		.word	.LANCHOR11+48
 1823 04bc 00C00000 		.word	Bowls+49152
 1824              	.L74:
 1825              	.LBE1186:
 1826              	.LBE1210:
 157:singingbowl.h **** 
ARM GAS  /var/folders/1p/hl98tgf51p19ck4ldyh6xb6c0000gn/T//ccZqo17l.s 			page 57


 1827              		.loc 13 157 66 view .LVU425
 1828 04c0 90ED7A4A 		vldr.32	s8, [r0, #488]
 1829              	.LBB1211:
 1830              	.LBB1187:
  78:singingbowl.h **** 
 1831              		.loc 13 78 29 view .LVU426
 1832 04c4 D2ED005A 		vldr.32	s11, [r2]
 1833              	.LBE1187:
 1834              	.LBE1211:
 1835              	.LBE1248:
 1836              	.LBE1252:
 1837              	.LBE1530:
 1838              	.LBE1538:
 113:source.cpp    ****                 filteredNoise[1] * sineOut * simpleEnv[1].Process(buttons[1].Pressed()) * lPortOut)
 1839              		.loc 11 113 35 view .LVU427
 1840 04c8 27EE2B7A 		vmul.f32	s14, s14, s23
 1841              	.LVL63:
 1842              	.LBB1539:
 1843              	.LBI1168:
 202:singingbowl.h ****         // Process first delay line with input
 1844              		.loc 13 202 18 is_stmt 1 view .LVU428
 1845              	.LBB1531:
 204:singingbowl.h ****         under_output += under_modals[1].Process(under_output) * -1.0f;
 1846              		.loc 13 204 9 view .LVU429
 1847              	.LBB1253:
 1848              	.LBI1170:
 137:singingbowl.h ****         // Mix Source with Feedback
 1849              		.loc 13 137 11 view .LVU430
 1850              	.LBB1249:
 142:singingbowl.h **** 
 1851              		.loc 13 142 9 view .LVU431
 142:singingbowl.h **** 
 1852              		.loc 13 142 21 is_stmt 0 view .LVU432
 1853 04cc D0ED796A 		vldr.32	s13, [r0, #484]
 1854              	.LBB1212:
 1855              	.LBB1188:
  85:singingbowl.h ****         y1_ = output;
 1856              		.loc 13 85 13 view .LVU433
 1857 04d0 C3ED065A 		vstr.32	s11, [r3, #24]
  78:singingbowl.h **** 
 1858              		.loc 13 78 33 view .LVU434
 1859 04d4 D3ED003A 		vldr.32	s7, [r3]
 1860              	.LBE1188:
 1861              	.LBE1212:
 1862              	.LBB1213:
 1863              	.LBB1177:
  65:../DaisyExamples/DaisySP//Source/Utility/delayline.h ****     }
 1864              		.loc 14 65 57 view .LVU435
 1865 04d8 A1FB0AE3 		umull	lr, r3, r1, r10
 1866 04dc 40F2DC5E 		movw	lr, #1500
 1867              	.LBE1177:
 1868              	.LBE1213:
 142:singingbowl.h **** 
 1869              		.loc 13 142 21 view .LVU436
 1870 04e0 77EE266A 		vadd.f32	s13, s14, s13
 1871              	.LVL64:
 148:singingbowl.h **** 
ARM GAS  /var/folders/1p/hl98tgf51p19ck4ldyh6xb6c0000gn/T//ccZqo17l.s 			page 58


 1872              		.loc 13 148 9 is_stmt 1 view .LVU437
 1873              	.LBB1214:
 1874              	.LBI1182:
  77:singingbowl.h ****         float output = b_ * y1_ - a1_ * y2_ - a2_ * x2_ + input;
 1875              		.loc 13 77 11 view .LVU438
 1876              	.LBB1189:
  78:singingbowl.h **** 
 1877              		.loc 13 78 9 view .LVU439
 1878              	.LBE1189:
 1879              	.LBE1214:
 1880              	.LBB1215:
 1881              	.LBB1178:
  65:../DaisyExamples/DaisySP//Source/Utility/delayline.h ****     }
 1882              		.loc 14 65 57 is_stmt 0 view .LVU440
 1883 04e4 5B09     		lsrs	r3, r3, #5
 1884              	.LBE1178:
 1885              	.LBE1215:
 1886              	.LBB1216:
 1887              	.LBB1190:
  78:singingbowl.h **** 
 1888              		.loc 13 78 33 view .LVU441
 1889 04e6 E3EEA57A 		vfma.f32	s15, s7, s11
 1890              	.LBE1190:
 1891              	.LBE1216:
 1892              	.LBB1217:
 1893              	.LBB1218:
 1894              		.loc 15 76 31 view .LVU442
 1895 04ea B0EEC75A 		vabs.f32	s10, s14
 1896              	.LBE1218:
 1897              	.LBE1217:
 1898              	.LBB1220:
 1899              	.LBB1179:
  65:../DaisyExamples/DaisySP//Source/Utility/delayline.h ****     }
 1900              		.loc 14 65 57 view .LVU443
 1901 04ee 0EFB13A3 		mls	r3, lr, r3, r10
 1902              	.LBE1179:
 1903              	.LBE1220:
 1904              	.LBB1221:
 1905              	.LBB1191:
  78:singingbowl.h **** 
 1906              		.loc 13 78 53 view .LVU444
 1907 04f2 A2F1040A 		sub	r10, r2, #4
 1908              	.LBE1191:
 1909              	.LBE1221:
 1910              	.LBB1222:
 1911              	.LBB1180:
  65:../DaisyExamples/DaisySP//Source/Utility/delayline.h ****     }
 1912              		.loc 14 65 27 view .LVU445
 1913 04f6 C0F8F031 		str	r3, [r0, #496]
 1914              	.LBE1180:
 1915              	.LBE1222:
 157:singingbowl.h **** 
 1916              		.loc 13 157 39 view .LVU446
 1917 04fa 25EE046A 		vmul.f32	s12, s10, s8
 1918              	.LBB1223:
 1919              	.LBB1199:
  72:../DaisyExamples/DaisySP//Source/Utility/delayline.h ****         T b = line_[(write_ptr_ + delay_ + 1) % max_size];
ARM GAS  /var/folders/1p/hl98tgf51p19ck4ldyh6xb6c0000gn/T//ccZqo17l.s 			page 59


 1920              		.loc 14 72 33 view .LVU447
 1921 04fe D0F8F401 		ldr	r0, [r0, #500]
 1922              	.LBE1199:
 1923              	.LBE1223:
 1924              	.LBB1224:
 1925              	.LBB1192:
  78:singingbowl.h **** 
 1926              		.loc 13 78 45 view .LVU448
 1927 0502 DAED005A 		vldr.32	s11, [r10]
 1928              	.LBE1192:
 1929              	.LBE1224:
 1930              	.LBB1225:
 1931              	.LBB1200:
  72:../DaisyExamples/DaisySP//Source/Utility/delayline.h ****         T b = line_[(write_ptr_ + delay_ + 1) % max_size];
 1932              		.loc 14 72 33 view .LVU449
 1933 0506 0344     		add	r3, r3, r0
 1934              	.LBE1200:
 1935              	.LBE1225:
 1936              	.LBB1226:
 1937              	.LBB1193:
  78:singingbowl.h **** 
 1938              		.loc 13 78 47 view .LVU450
 1939 0508 A2F10C00 		sub	r0, r2, #12
  78:singingbowl.h **** 
 1940              		.loc 13 78 45 view .LVU451
 1941 050c D0ED003A 		vldr.32	s7, [r0]
 1942              	.LBE1193:
 1943              	.LBE1226:
 1944              	.LBB1227:
 1945              	.LBB1201:
  73:../DaisyExamples/DaisySP//Source/Utility/delayline.h ****         return a + (b - a) * frac_;
 1946              		.loc 14 73 42 view .LVU452
 1947 0510 581C     		adds	r0, r3, #1
 1948              	.LBE1201:
 1949              	.LBE1227:
 1950              	.LBB1228:
 1951              	.LBB1194:
  78:singingbowl.h **** 
 1952              		.loc 13 78 45 view .LVU453
 1953 0512 E3EEE57A 		vfms.f32	s15, s7, s11
  78:singingbowl.h **** 
 1954              		.loc 13 78 15 view .LVU454
 1955 0516 76EEA77A 		vadd.f32	s15, s13, s15
 1956              	.LVL65:
  81:singingbowl.h ****         x1_ = input;
 1957              		.loc 13 81 9 is_stmt 1 view .LVU455
  86:singingbowl.h **** 
 1958              		.loc 13 86 13 is_stmt 0 view .LVU456
 1959 051a C2ED007A 		vstr.32	s15, [r2]
 1960              	.LBE1194:
 1961              	.LBE1228:
 1962              	.LBB1229:
 1963              	.LBB1202:
  72:../DaisyExamples/DaisySP//Source/Utility/delayline.h ****         T b = line_[(write_ptr_ + delay_ + 1) % max_size];
 1964              		.loc 14 72 43 view .LVU457
 1965 051e A1FB03B2 		umull	fp, r2, r1, r3
  73:../DaisyExamples/DaisySP//Source/Utility/delayline.h ****         return a + (b - a) * frac_;
ARM GAS  /var/folders/1p/hl98tgf51p19ck4ldyh6xb6c0000gn/T//ccZqo17l.s 			page 60


 1966              		.loc 14 73 47 view .LVU458
 1967 0522 A1FB00B1 		umull	fp, r1, r1, r0
  72:../DaisyExamples/DaisySP//Source/Utility/delayline.h ****         T b = line_[(write_ptr_ + delay_ + 1) % max_size];
 1968              		.loc 14 72 43 view .LVU459
 1969 0526 5209     		lsrs	r2, r2, #5
  73:../DaisyExamples/DaisySP//Source/Utility/delayline.h ****         return a + (b - a) * frac_;
 1970              		.loc 14 73 47 view .LVU460
 1971 0528 4909     		lsrs	r1, r1, #5
  72:../DaisyExamples/DaisySP//Source/Utility/delayline.h ****         T b = line_[(write_ptr_ + delay_ + 1) % max_size];
 1972              		.loc 14 72 43 view .LVU461
 1973 052a 0EFB1233 		mls	r3, lr, r2, r3
  72:../DaisyExamples/DaisySP//Source/Utility/delayline.h ****         T b = line_[(write_ptr_ + delay_ + 1) % max_size];
 1974              		.loc 14 72 11 view .LVU462
 1975 052e F24A     		ldr	r2, .L76
  73:../DaisyExamples/DaisySP//Source/Utility/delayline.h ****         return a + (b - a) * frac_;
 1976              		.loc 14 73 47 view .LVU463
 1977 0530 0EFB1100 		mls	r0, lr, r1, r0
 1978              	.LBE1202:
 1979              	.LBE1229:
 1980              	.LBB1230:
 1981              	.LBB1195:
  81:singingbowl.h ****         x1_ = input;
 1982              		.loc 13 81 15 view .LVU464
 1983 0534 02F5CC51 		add	r1, r2, #6528
 1984              	.LBE1195:
 1985              	.LBE1230:
 1986              	.LBB1231:
 1987              	.LBB1203:
  72:../DaisyExamples/DaisySP//Source/Utility/delayline.h ****         T b = line_[(write_ptr_ + delay_ + 1) % max_size];
 1988              		.loc 14 72 11 view .LVU465
 1989 0538 02EB8303 		add	r3, r2, r3, lsl #2
  73:../DaisyExamples/DaisySP//Source/Utility/delayline.h ****         return a + (b - a) * frac_;
 1990              		.loc 14 73 11 view .LVU466
 1991 053c 02EB8000 		add	r0, r2, r0, lsl #2
 1992              	.LBE1203:
 1993              	.LBE1231:
 1994              	.LBB1232:
 1995              	.LBB1196:
  81:singingbowl.h ****         x1_ = input;
 1996              		.loc 13 81 13 view .LVU467
 1997 0540 0A68     		ldr	r2, [r1]	@ float
  82:singingbowl.h **** 
 1998              		.loc 13 82 13 view .LVU468
 1999 0542 C1ED006A 		vstr.32	s13, [r1]
  81:singingbowl.h ****         x1_ = input;
 2000              		.loc 13 81 13 view .LVU469
 2001 0546 CAF80020 		str	r2, [r10]	@ float
  82:singingbowl.h **** 
 2002              		.loc 13 82 9 is_stmt 1 view .LVU470
  85:singingbowl.h ****         y1_ = output;
 2003              		.loc 13 85 9 view .LVU471
  86:singingbowl.h **** 
 2004              		.loc 13 86 9 view .LVU472
  88:singingbowl.h ****     }
 2005              		.loc 13 88 9 view .LVU473
 2006              	.LVL66:
  88:singingbowl.h ****     }
ARM GAS  /var/folders/1p/hl98tgf51p19ck4ldyh6xb6c0000gn/T//ccZqo17l.s 			page 61


 2007              		.loc 13 88 9 is_stmt 0 view .LVU474
 2008              	.LBE1196:
 2009              	.LBE1232:
 151:singingbowl.h **** 
 2010              		.loc 13 151 9 is_stmt 1 view .LVU475
 2011              	.LBB1233:
 2012              	.LBI1172:
  62:../DaisyExamples/DaisySP//Source/Utility/delayline.h ****     {
 2013              		.loc 14 62 17 view .LVU476
  62:../DaisyExamples/DaisySP//Source/Utility/delayline.h ****     {
 2014              		.loc 14 62 17 is_stmt 0 view .LVU477
 2015              	.LBE1233:
 154:singingbowl.h **** 
 2016              		.loc 13 154 9 is_stmt 1 view .LVU478
 2017              	.LBB1234:
 2018              	.LBI1197:
  70:../DaisyExamples/DaisySP//Source/Utility/delayline.h ****     {
 2019              		.loc 14 70 20 view .LVU479
 2020              	.LBE1234:
 2021              	.LBB1235:
 2022              	.LBB1181:
  64:../DaisyExamples/DaisySP//Source/Utility/delayline.h ****         write_ptr_        = (write_ptr_ - 1 + max_size) % max_size;
 2023              		.loc 14 64 27 is_stmt 0 view .LVU480
 2024 054a CCED7E7A 		vstr.32	s15, [ip, #504]
 2025              	.LBE1181:
 2026              	.LBE1235:
 2027              	.LBB1236:
 2028              	.LBB1204:
  72:../DaisyExamples/DaisySP//Source/Utility/delayline.h ****         T b = line_[(write_ptr_ + delay_ + 1) % max_size];
 2029              		.loc 14 72 11 view .LVU481
 2030 054e D3ED7E6A 		vldr.32	s13, [r3, #504]
 2031              	.LVL67:
 2032              		.loc 14 74 23 view .LVU482
 2033 0552 D0ED7E7A 		vldr.32	s15, [r0, #504]
 2034              	.LVL68:
 2035              		.loc 14 74 23 view .LVU483
 2036 0556 77EEE67A 		vsub.f32	s15, s15, s13
 2037              		.loc 14 74 30 view .LVU484
 2038 055a E7EEA46A 		vfma.f32	s13, s15, s9
 2039              	.LVL69:
 2040              		.loc 14 74 30 view .LVU485
 2041              	.LBE1204:
 2042              	.LBE1236:
 157:singingbowl.h **** 
 2043              		.loc 13 157 9 is_stmt 1 view .LVU486
 2044              	.LBB1237:
 2045              	.LBI1217:
  75:/Applications/ARM/arm-none-eabi/include/c++/10.3.1/bits/std_abs.h ****   { return __builtin_fabsf(__x); }
 2046              		.loc 15 75 3 view .LVU487
 2047              	.LBB1219:
 2048              		.loc 15 76 5 view .LVU488
 2049              		.loc 15 76 5 is_stmt 0 view .LVU489
 2050              	.LBE1219:
 2051              	.LBE1237:
 2052              	.LBB1238:
 2053              	.LBI1238:
  75:/Applications/ARM/arm-none-eabi/include/c++/10.3.1/bits/std_abs.h ****   { return __builtin_fabsf(__x); }
ARM GAS  /var/folders/1p/hl98tgf51p19ck4ldyh6xb6c0000gn/T//ccZqo17l.s 			page 62


 2054              		.loc 15 75 3 is_stmt 1 view .LVU490
 2055              	.LBB1239:
 2056              		.loc 15 76 5 view .LVU491
 2057              		.loc 15 76 5 is_stmt 0 view .LVU492
 2058              	.LBE1239:
 2059              	.LBE1238:
 2060              	.LBB1241:
 2061              	.LBI1241:
  14:singingbowl.h ****     float totalVelocity = (initialVelocity + relativeVelocity);
 2062              		.loc 13 14 7 is_stmt 1 view .LVU493
 2063              	.LBB1242:
  15:singingbowl.h ****     if (totalVelocity == 0)
 2064              		.loc 13 15 5 view .LVU494
  15:singingbowl.h ****     if (totalVelocity == 0)
 2065              		.loc 13 15 11 is_stmt 0 view .LVU495
 2066 055e F0EE464A 		vmov.f32	s9, s12
 2067              	.LBE1242:
 2068              	.LBE1241:
 157:singingbowl.h **** 
 2069              		.loc 13 157 80 view .LVU496
 2070 0562 77EE267A 		vadd.f32	s15, s14, s13
 2071              	.LBB1245:
 2072              	.LBB1240:
 2073              		.loc 15 76 31 view .LVU497
 2074 0566 F0EEE77A 		vabs.f32	s15, s15
 2075              	.LBE1240:
 2076              	.LBE1245:
 2077              	.LBB1246:
 2078              	.LBB1243:
  15:singingbowl.h ****     if (totalVelocity == 0)
 2079              		.loc 13 15 11 view .LVU498
 2080 056a E4EE274A 		vfma.f32	s9, s8, s15
 2081              	.LVL70:
  16:singingbowl.h ****         return 0;
 2082              		.loc 13 16 5 is_stmt 1 view .LVU499
 2083 056e F5EE404A 		vcmp.f32	s9, #0
 2084 0572 F1EE10FA 		vmrs	APSR_nzcv, FPSCR
 2085 0576 01F03285 		beq	.L48
  19:singingbowl.h **** }
 2086              		.loc 13 19 9 view .LVU500
  19:singingbowl.h **** }
 2087              		.loc 13 19 71 is_stmt 0 view .LVU501
 2088 057a DFEDE05A 		vldr.32	s11, .L76+4
  19:singingbowl.h **** }
 2089              		.loc 13 19 105 view .LVU502
 2090 057e DFEDE07A 		vldr.32	s15, .L76+8
  19:singingbowl.h **** }
 2091              		.loc 13 19 71 view .LVU503
 2092 0582 26EE256A 		vmul.f32	s12, s12, s11
 2093              	.LVL71:
  19:singingbowl.h **** }
 2094              		.loc 13 19 90 view .LVU504
 2095 0586 C6EE245A 		vdiv.f32	s11, s12, s9
  19:singingbowl.h **** }
 2096              		.loc 13 19 105 view .LVU505
 2097 058a 75EEA75A 		vadd.f32	s11, s11, s15
 2098              	.L22:
ARM GAS  /var/folders/1p/hl98tgf51p19ck4ldyh6xb6c0000gn/T//ccZqo17l.s 			page 63


 2099              	.LVL72:
  19:singingbowl.h **** }
 2100              		.loc 13 19 105 view .LVU506
 2101              	.LBE1243:
 2102              	.LBE1246:
 157:singingbowl.h **** 
 2103              		.loc 13 157 23 view .LVU507
 2104 058e DA4B     		ldr	r3, .L76
 160:singingbowl.h **** 
 2105              		.loc 13 160 27 view .LVU508
 2106 0590 25EEA63A 		vmul.f32	s6, s11, s13
 2107              	.LBE1249:
 2108              	.LBE1253:
 2109              	.LBB1254:
 2110              	.LBB1255:
 2111              	.LBB1256:
 2112              	.LBB1257:
  78:singingbowl.h **** 
 2113              		.loc 13 78 39 view .LVU509
 2114 0594 D8ED717A 		vldr.32	s15, [r8, #452]
 2115              	.LBE1257:
 2116              	.LBE1256:
 2117              	.LBB1268:
 2118              	.LBB1269:
  65:../DaisyExamples/DaisySP//Source/Utility/delayline.h ****     }
 2119              		.loc 14 65 57 view .LVU510
 2120 0598 40F2DC5A 		movw	r10, #1500
  64:../DaisyExamples/DaisySP//Source/Utility/delayline.h ****         write_ptr_        = (write_ptr_ - 1 + max_size) % max_size;
 2121              		.loc 14 64 15 view .LVU511
 2122 059c 03F58051 		add	r1, r3, #4096
 2123              	.LBE1269:
 2124              	.LBE1268:
 2125              	.LBE1255:
 2126              	.LBE1254:
 2127              	.LBB1339:
 2128              	.LBB1250:
 157:singingbowl.h **** 
 2129              		.loc 13 157 23 view .LVU512
 2130 05a0 C3ED785A 		vstr.32	s11, [r3, #480]
 160:singingbowl.h **** 
 2131              		.loc 13 160 9 is_stmt 1 view .LVU513
 160:singingbowl.h **** 
 2132              		.loc 13 160 18 is_stmt 0 view .LVU514
 2133 05a4 83ED793A 		vstr.32	s6, [r3, #484]
 162:singingbowl.h ****     }
 2134              		.loc 13 162 9 is_stmt 1 view .LVU515
 2135              	.LVL73:
 162:singingbowl.h ****     }
 2136              		.loc 13 162 9 is_stmt 0 view .LVU516
 2137              	.LBE1250:
 2138              	.LBE1339:
 205:singingbowl.h ****         //under_output += under_modals[2].Process(under_output) * -1.0f;
 2139              		.loc 13 205 9 is_stmt 1 view .LVU517
 2140              	.LBB1340:
 2141              	.LBI1254:
 137:singingbowl.h ****         // Mix Source with Feedback
 2142              		.loc 13 137 11 view .LVU518
ARM GAS  /var/folders/1p/hl98tgf51p19ck4ldyh6xb6c0000gn/T//ccZqo17l.s 			page 64


 2143              	.LBB1331:
 142:singingbowl.h **** 
 2144              		.loc 13 142 9 view .LVU519
 2145              	.LBB1279:
 2146              	.LBB1280:
  72:../DaisyExamples/DaisySP//Source/Utility/delayline.h ****         T b = line_[(write_ptr_ + delay_ + 1) % max_size];
 2147              		.loc 14 72 33 is_stmt 0 view .LVU520
 2148 05a8 D1F82C0A 		ldr	r0, [r1, #2604]
 2149              	.LBE1280:
 2150              	.LBE1279:
 142:singingbowl.h **** 
 2151              		.loc 13 142 38 view .LVU521
 2152 05ac 0A46     		mov	r2, r1
 2153              	.LBB1289:
 2154              	.LBB1270:
  64:../DaisyExamples/DaisySP//Source/Utility/delayline.h ****         write_ptr_        = (write_ptr_ - 1 + max_size) % max_size;
 2155              		.loc 14 64 15 view .LVU522
 2156 05ae D1F8283A 		ldr	r3, [r1, #2600]
 2157              	.LBE1270:
 2158              	.LBE1289:
 142:singingbowl.h **** 
 2159              		.loc 13 142 38 view .LVU523
 2160 05b2 01F61C21 		addw	r1, r1, #2588
 2161              	.LBB1290:
 2162              	.LBB1258:
  78:singingbowl.h **** 
 2163              		.loc 13 78 39 view .LVU524
 2164 05b6 98ED6C6A 		vldr.32	s12, [r8, #432]
 2165              	.LBE1258:
 2166              	.LBE1290:
 2167              	.LBB1291:
 2168              	.LBB1271:
  65:../DaisyExamples/DaisySP//Source/Utility/delayline.h ****     }
 2169              		.loc 14 65 45 view .LVU525
 2170 05ba 03F2DB5C 		addw	ip, r3, #1499
 2171              	.LBE1271:
 2172              	.LBE1291:
 142:singingbowl.h **** 
 2173              		.loc 13 142 21 view .LVU526
 2174 05be D1ED005A 		vldr.32	s11, [r1]
 2175              	.LBB1292:
 2176              	.LBB1272:
  65:../DaisyExamples/DaisySP//Source/Utility/delayline.h ****     }
 2177              		.loc 14 65 57 view .LVU527
 2178 05c2 D049     		ldr	r1, .L76+12
 2179              	.LBE1272:
 2180              	.LBE1292:
 2181              	.LBB1293:
 2182              	.LBB1259:
  78:singingbowl.h **** 
 2183              		.loc 13 78 33 view .LVU528
 2184 05c4 67EEC67A 		vnmul.f32	s15, s15, s12
  78:singingbowl.h **** 
 2185              		.loc 13 78 29 view .LVU529
 2186 05c8 D8ED704A 		vldr.32	s9, [r8, #448]
 2187              	.LBE1259:
 2188              	.LBE1293:
ARM GAS  /var/folders/1p/hl98tgf51p19ck4ldyh6xb6c0000gn/T//ccZqo17l.s 			page 65


 142:singingbowl.h **** 
 2189              		.loc 13 142 21 view .LVU530
 2190 05cc 76EEA55A 		vadd.f32	s11, s13, s11
 2191              	.LVL74:
 148:singingbowl.h **** 
 2192              		.loc 13 148 9 is_stmt 1 view .LVU531
 2193              	.LBB1294:
 2194              	.LBI1256:
  77:singingbowl.h ****         float output = b_ * y1_ - a1_ * y2_ - a2_ * x2_ + input;
 2195              		.loc 13 77 11 view .LVU532
 2196              	.LBB1260:
  78:singingbowl.h **** 
 2197              		.loc 13 78 9 view .LVU533
 2198              	.LBE1260:
 2199              	.LBE1294:
 2200              	.LBB1295:
 2201              	.LBB1273:
  65:../DaisyExamples/DaisySP//Source/Utility/delayline.h ****     }
 2202              		.loc 14 65 57 is_stmt 0 view .LVU534
 2203 05d0 A1FB0CE1 		umull	lr, r1, r1, ip
 2204              	.LBE1273:
 2205              	.LBE1295:
 2206              	.LBB1296:
 2207              	.LBB1261:
  78:singingbowl.h **** 
 2208              		.loc 13 78 33 view .LVU535
 2209 05d4 D8ED6B2A 		vldr.32	s5, [r8, #428]
  78:singingbowl.h **** 
 2210              		.loc 13 78 45 view .LVU536
 2211 05d8 98ED6F4A 		vldr.32	s8, [r8, #444]
 2212              	.LBE1261:
 2213              	.LBE1296:
 2214              	.LBB1297:
 2215              	.LBB1298:
 2216              		.loc 15 76 31 view .LVU537
 2217 05dc B0EEE66A 		vabs.f32	s12, s13
 2218              	.LBE1298:
 2219              	.LBE1297:
 2220              	.LBB1300:
 2221              	.LBB1274:
  65:../DaisyExamples/DaisySP//Source/Utility/delayline.h ****     }
 2222              		.loc 14 65 57 view .LVU538
 2223 05e0 4909     		lsrs	r1, r1, #5
 2224              	.LBE1274:
 2225              	.LBE1300:
 2226              	.LBB1301:
 2227              	.LBB1262:
  78:singingbowl.h **** 
 2228              		.loc 13 78 33 view .LVU539
 2229 05e2 E2EEA47A 		vfma.f32	s15, s5, s9
  78:singingbowl.h **** 
 2230              		.loc 13 78 45 view .LVU540
 2231 05e6 D8ED6D3A 		vldr.32	s7, [r8, #436]
 2232              	.LBE1262:
 2233              	.LBE1301:
 2234              	.LBB1302:
 2235              	.LBB1275:
ARM GAS  /var/folders/1p/hl98tgf51p19ck4ldyh6xb6c0000gn/T//ccZqo17l.s 			page 66


  65:../DaisyExamples/DaisySP//Source/Utility/delayline.h ****     }
 2236              		.loc 14 65 57 view .LVU541
 2237 05ea 0AFB11C1 		mls	r1, r10, r1, ip
 2238              	.LBE1275:
 2239              	.LBE1302:
 2240              	.LBB1303:
 2241              	.LBB1263:
  85:singingbowl.h ****         y1_ = output;
 2242              		.loc 13 85 13 view .LVU542
 2243 05ee C8ED714A 		vstr.32	s9, [r8, #452]
 2244              	.LBE1263:
 2245              	.LBE1303:
 2246              	.LBB1304:
 2247              	.LBB1281:
  72:../DaisyExamples/DaisySP//Source/Utility/delayline.h ****         T b = line_[(write_ptr_ + delay_ + 1) % max_size];
 2248              		.loc 14 72 33 view .LVU543
 2249 05f2 0844     		add	r0, r0, r1
 2250              	.LBE1281:
 2251              	.LBE1304:
 2252              	.LBB1305:
 2253              	.LBB1276:
  65:../DaisyExamples/DaisySP//Source/Utility/delayline.h ****     }
 2254              		.loc 14 65 27 view .LVU544
 2255 05f4 C2F8281A 		str	r1, [r2, #2600]
  64:../DaisyExamples/DaisySP//Source/Utility/delayline.h ****         write_ptr_        = (write_ptr_ - 1 + max_size) % max_size;
 2256              		.loc 14 64 27 view .LVU545
 2257 05f8 02F62821 		addw	r1, r2, #2600
 2258              	.LBE1276:
 2259              	.LBE1305:
 2260              	.LBB1306:
 2261              	.LBB1282:
  72:../DaisyExamples/DaisySP//Source/Utility/delayline.h ****         T b = line_[(write_ptr_ + delay_ + 1) % max_size];
 2262              		.loc 14 72 43 view .LVU546
 2263 05fc C14A     		ldr	r2, .L76+12
  73:../DaisyExamples/DaisySP//Source/Utility/delayline.h ****         return a + (b - a) * frac_;
 2264              		.loc 14 73 42 view .LVU547
 2265 05fe 00F1010E 		add	lr, r0, #1
 2266              	.LBE1282:
 2267              	.LBE1306:
 2268              	.LBB1307:
 2269              	.LBB1264:
  78:singingbowl.h **** 
 2270              		.loc 13 78 45 view .LVU548
 2271 0602 E3EEC47A 		vfms.f32	s15, s7, s8
 2272              	.LBE1264:
 2273              	.LBE1307:
 2274              	.LBB1308:
 2275              	.LBB1277:
  64:../DaisyExamples/DaisySP//Source/Utility/delayline.h ****         write_ptr_        = (write_ptr_ - 1 + max_size) % max_size;
 2276              		.loc 14 64 27 view .LVU549
 2277 0606 01EB830C 		add	ip, r1, r3, lsl #2
 2278              	.LBE1277:
 2279              	.LBE1308:
 2280              	.LBB1309:
 2281              	.LBB1283:
  72:../DaisyExamples/DaisySP//Source/Utility/delayline.h ****         T b = line_[(write_ptr_ + delay_ + 1) % max_size];
 2282              		.loc 14 72 43 view .LVU550
ARM GAS  /var/folders/1p/hl98tgf51p19ck4ldyh6xb6c0000gn/T//ccZqo17l.s 			page 67


 2283 060a A2FB00B3 		umull	fp, r3, r2, r0
  73:../DaisyExamples/DaisySP//Source/Utility/delayline.h ****         return a + (b - a) * frac_;
 2284              		.loc 14 73 47 view .LVU551
 2285 060e A2FB0EB2 		umull	fp, r2, r2, lr
  72:../DaisyExamples/DaisySP//Source/Utility/delayline.h ****         T b = line_[(write_ptr_ + delay_ + 1) % max_size];
 2286              		.loc 14 72 43 view .LVU552
 2287 0612 5B09     		lsrs	r3, r3, #5
  73:../DaisyExamples/DaisySP//Source/Utility/delayline.h ****         return a + (b - a) * frac_;
 2288              		.loc 14 73 47 view .LVU553
 2289 0614 5209     		lsrs	r2, r2, #5
  72:../DaisyExamples/DaisySP//Source/Utility/delayline.h ****         T b = line_[(write_ptr_ + delay_ + 1) % max_size];
 2290              		.loc 14 72 43 view .LVU554
 2291 0616 0AFB1303 		mls	r3, r10, r3, r0
  73:../DaisyExamples/DaisySP//Source/Utility/delayline.h ****         return a + (b - a) * frac_;
 2292              		.loc 14 73 47 view .LVU555
 2293 061a 0AFB12EE 		mls	lr, r10, r2, lr
 2294              	.LBE1283:
 2295              	.LBE1309:
 2296              	.LBB1310:
 2297              	.LBB1265:
  78:singingbowl.h **** 
 2298              		.loc 13 78 15 view .LVU556
 2299 061e 75EEA77A 		vadd.f32	s15, s11, s15
 2300              	.LVL75:
  81:singingbowl.h ****         x1_ = input;
 2301              		.loc 13 81 9 is_stmt 1 view .LVU557
  81:singingbowl.h ****         x1_ = input;
 2302              		.loc 13 81 13 is_stmt 0 view .LVU558
 2303 0622 D8F8B821 		ldr	r2, [r8, #440]	@ float
 2304              	.LBE1265:
 2305              	.LBE1310:
 2306              	.LBB1311:
 2307              	.LBB1284:
  72:../DaisyExamples/DaisySP//Source/Utility/delayline.h ****         T b = line_[(write_ptr_ + delay_ + 1) % max_size];
 2308              		.loc 14 72 11 view .LVU559
 2309 0626 01EB8303 		add	r3, r1, r3, lsl #2
  73:../DaisyExamples/DaisySP//Source/Utility/delayline.h ****         return a + (b - a) * frac_;
 2310              		.loc 14 73 11 view .LVU560
 2311 062a 01EB8E01 		add	r1, r1, lr, lsl #2
 2312              	.LBE1284:
 2313              	.LBE1311:
 2314              	.LBB1312:
 2315              	.LBB1266:
  82:singingbowl.h **** 
 2316              		.loc 13 82 13 view .LVU561
 2317 062e C8ED6E5A 		vstr.32	s11, [r8, #440]
  81:singingbowl.h ****         x1_ = input;
 2318              		.loc 13 81 13 view .LVU562
 2319 0632 C8F8BC21 		str	r2, [r8, #444]	@ float
  82:singingbowl.h **** 
 2320              		.loc 13 82 9 is_stmt 1 view .LVU563
  85:singingbowl.h ****         y1_ = output;
 2321              		.loc 13 85 9 view .LVU564
  86:singingbowl.h **** 
 2322              		.loc 13 86 9 view .LVU565
  88:singingbowl.h ****     }
 2323              		.loc 13 88 9 view .LVU566
ARM GAS  /var/folders/1p/hl98tgf51p19ck4ldyh6xb6c0000gn/T//ccZqo17l.s 			page 68


 2324              	.LVL76:
  88:singingbowl.h ****     }
 2325              		.loc 13 88 9 is_stmt 0 view .LVU567
 2326              	.LBE1266:
 2327              	.LBE1312:
 151:singingbowl.h **** 
 2328              		.loc 13 151 9 is_stmt 1 view .LVU568
 2329              	.LBB1313:
 2330              	.LBI1268:
  62:../DaisyExamples/DaisySP//Source/Utility/delayline.h ****     {
 2331              		.loc 14 62 17 view .LVU569
  62:../DaisyExamples/DaisySP//Source/Utility/delayline.h ****     {
 2332              		.loc 14 62 17 is_stmt 0 view .LVU570
 2333              	.LBE1313:
 154:singingbowl.h **** 
 2334              		.loc 13 154 9 is_stmt 1 view .LVU571
 2335              	.LBB1314:
 2336              	.LBI1279:
  70:../DaisyExamples/DaisySP//Source/Utility/delayline.h ****     {
 2337              		.loc 14 70 20 view .LVU572
 2338              	.LBB1285:
 2339              		.loc 14 74 30 is_stmt 0 view .LVU573
 2340 0636 B44A     		ldr	r2, .L76+16
 2341              	.LBE1285:
 2342              	.LBE1314:
 2343              	.LBB1315:
 2344              	.LBB1267:
  86:singingbowl.h **** 
 2345              		.loc 13 86 13 view .LVU574
 2346 0638 C8ED707A 		vstr.32	s15, [r8, #448]
 2347              	.LBE1267:
 2348              	.LBE1315:
 2349              	.LBB1316:
 2350              	.LBB1278:
  64:../DaisyExamples/DaisySP//Source/Utility/delayline.h ****         write_ptr_        = (write_ptr_ - 1 + max_size) % max_size;
 2351              		.loc 14 64 27 view .LVU575
 2352 063c CCED027A 		vstr.32	s15, [ip, #8]
 2353              	.LBE1278:
 2354              	.LBE1316:
 2355              	.LBB1317:
 2356              	.LBB1286:
  72:../DaisyExamples/DaisySP//Source/Utility/delayline.h ****         T b = line_[(write_ptr_ + delay_ + 1) % max_size];
 2357              		.loc 14 72 11 view .LVU576
 2358 0640 D3ED025A 		vldr.32	s11, [r3, #8]
 2359              	.LVL77:
 2360              		.loc 14 74 30 view .LVU577
 2361 0644 02F62423 		addw	r3, r2, #2596
 2362              		.loc 14 74 23 view .LVU578
 2363 0648 D1ED027A 		vldr.32	s15, [r1, #8]
 2364              	.LVL78:
 2365              		.loc 14 74 30 view .LVU579
 2366 064c D3ED004A 		vldr.32	s9, [r3]
 2367              	.LBE1286:
 2368              	.LBE1317:
 157:singingbowl.h **** 
 2369              		.loc 13 157 66 view .LVU580
 2370 0650 02F52263 		add	r3, r2, #2592
ARM GAS  /var/folders/1p/hl98tgf51p19ck4ldyh6xb6c0000gn/T//ccZqo17l.s 			page 69


 2371              	.LBB1318:
 2372              	.LBB1287:
 2373              		.loc 14 74 23 view .LVU581
 2374 0654 77EEE57A 		vsub.f32	s15, s15, s11
 2375              	.LBE1287:
 2376              	.LBE1318:
 157:singingbowl.h **** 
 2377              		.loc 13 157 66 view .LVU582
 2378 0658 93ED004A 		vldr.32	s8, [r3]
 2379              	.LBB1319:
 2380              	.LBB1288:
 2381              		.loc 14 74 30 view .LVU583
 2382 065c E7EEA45A 		vfma.f32	s11, s15, s9
 2383              	.LVL79:
 2384              		.loc 14 74 30 view .LVU584
 2385              	.LBE1288:
 2386              	.LBE1319:
 157:singingbowl.h **** 
 2387              		.loc 13 157 9 is_stmt 1 view .LVU585
 2388              	.LBB1320:
 2389              	.LBI1297:
  75:/Applications/ARM/arm-none-eabi/include/c++/10.3.1/bits/std_abs.h ****   { return __builtin_fabsf(__x); }
 2390              		.loc 15 75 3 view .LVU586
 2391              	.LBB1299:
 2392              		.loc 15 76 5 view .LVU587
 2393              		.loc 15 76 5 is_stmt 0 view .LVU588
 2394              	.LBE1299:
 2395              	.LBE1320:
 157:singingbowl.h **** 
 2396              		.loc 13 157 39 view .LVU589
 2397 0660 66EE047A 		vmul.f32	s15, s12, s8
 2398              	.LVL80:
 2399              	.LBB1321:
 2400              	.LBI1321:
  75:/Applications/ARM/arm-none-eabi/include/c++/10.3.1/bits/std_abs.h ****   { return __builtin_fabsf(__x); }
 2401              		.loc 15 75 3 is_stmt 1 view .LVU590
 2402              	.LBB1322:
 2403              		.loc 15 76 5 view .LVU591
 2404              		.loc 15 76 5 is_stmt 0 view .LVU592
 2405              	.LBE1322:
 2406              	.LBE1321:
 2407              	.LBB1324:
 2408              	.LBI1324:
  14:singingbowl.h ****     float totalVelocity = (initialVelocity + relativeVelocity);
 2409              		.loc 13 14 7 is_stmt 1 view .LVU593
 2410              	.LBB1325:
  15:singingbowl.h ****     if (totalVelocity == 0)
 2411              		.loc 13 15 5 view .LVU594
  15:singingbowl.h ****     if (totalVelocity == 0)
 2412              		.loc 13 15 11 is_stmt 0 view .LVU595
 2413 0664 B0EE676A 		vmov.f32	s12, s15
 2414              	.LBE1325:
 2415              	.LBE1324:
 157:singingbowl.h **** 
 2416              		.loc 13 157 80 view .LVU596
 2417 0668 76EEA54A 		vadd.f32	s9, s13, s11
 2418              	.LBB1328:
ARM GAS  /var/folders/1p/hl98tgf51p19ck4ldyh6xb6c0000gn/T//ccZqo17l.s 			page 70


 2419              	.LBB1323:
 2420              		.loc 15 76 31 view .LVU597
 2421 066c F0EEE44A 		vabs.f32	s9, s9
 2422              	.LBE1323:
 2423              	.LBE1328:
 2424              	.LBB1329:
 2425              	.LBB1326:
  15:singingbowl.h ****     if (totalVelocity == 0)
 2426              		.loc 13 15 11 view .LVU598
 2427 0670 A4EE246A 		vfma.f32	s12, s8, s9
 2428              	.LVL81:
  16:singingbowl.h ****         return 0;
 2429              		.loc 13 16 5 is_stmt 1 view .LVU599
 2430 0674 B5EE406A 		vcmp.f32	s12, #0
 2431 0678 F1EE10FA 		vmrs	APSR_nzcv, FPSCR
 2432 067c 01F0AB84 		beq	.L49
  19:singingbowl.h **** }
 2433              		.loc 13 19 9 view .LVU600
  19:singingbowl.h **** }
 2434              		.loc 13 19 71 is_stmt 0 view .LVU601
 2435 0680 DFED9E4A 		vldr.32	s9, .L76+4
  19:singingbowl.h **** }
 2436              		.loc 13 19 105 view .LVU602
 2437 0684 9FED9E4A 		vldr.32	s8, .L76+8
 2438              	.LVL82:
  19:singingbowl.h **** }
 2439              		.loc 13 19 71 view .LVU603
 2440 0688 67EEA47A 		vmul.f32	s15, s15, s9
 2441              	.LVL83:
  19:singingbowl.h **** }
 2442              		.loc 13 19 90 view .LVU604
 2443 068c C7EE864A 		vdiv.f32	s9, s15, s12
  19:singingbowl.h **** }
 2444              		.loc 13 19 105 view .LVU605
 2445 0690 74EE844A 		vadd.f32	s9, s9, s8
 2446              	.L23:
 2447              	.LVL84:
  19:singingbowl.h **** }
 2448              		.loc 13 19 105 view .LVU606
 2449              	.LBE1326:
 2450              	.LBE1329:
 2451              	.LBE1331:
 2452              	.LBE1340:
 2453              	.LBB1341:
 2454              	.LBB1342:
 142:singingbowl.h **** 
 2455              		.loc 13 142 21 view .LVU607
 2456 0694 9D48     		ldr	r0, .L76+20
 2457              	.LBE1342:
 2458              	.LBE1341:
 2459              	.LBB1426:
 2460              	.LBB1332:
 160:singingbowl.h **** 
 2461              		.loc 13 160 27 view .LVU608
 2462 0696 64EEA53A 		vmul.f32	s7, s9, s11
 2463 069a 76EEE56A 		vsub.f32	s13, s13, s11
 2464              	.LVL85:
ARM GAS  /var/folders/1p/hl98tgf51p19ck4ldyh6xb6c0000gn/T//ccZqo17l.s 			page 71


 160:singingbowl.h **** 
 2465              		.loc 13 160 27 view .LVU609
 2466              	.LBE1332:
 2467              	.LBE1426:
 2468              	.LBB1427:
 2469              	.LBB1417:
 2470              	.LBB1343:
 2471              	.LBB1344:
  64:../DaisyExamples/DaisySP//Source/Utility/delayline.h ****         write_ptr_        = (write_ptr_ - 1 + max_size) % max_size;
 2472              		.loc 14 64 15 view .LVU610
 2473 069e D0F8D022 		ldr	r2, [r0, #720]
 2474              	.LBE1344:
 2475              	.LBE1343:
 2476              	.LBB1352:
 2477              	.LBB1353:
  78:singingbowl.h **** 
 2478              		.loc 13 78 41 view .LVU611
 2479 06a2 00F58051 		add	r1, r0, #4096
 2480              	.LBE1353:
 2481              	.LBE1352:
 157:singingbowl.h **** 
 2482              		.loc 13 157 66 view .LVU612
 2483 06a6 90EDB24A 		vldr.32	s8, [r0, #712]
 2484              	.LBB1367:
 2485              	.LBB1345:
  65:../DaisyExamples/DaisySP//Source/Utility/delayline.h ****     }
 2486              		.loc 14 65 45 view .LVU613
 2487 06aa 02F2DB5A 		addw	r10, r2, #1499
 2488              	.LBE1345:
 2489              	.LBE1367:
 2490              	.LBB1368:
 2491              	.LBB1354:
  78:singingbowl.h **** 
 2492              		.loc 13 78 41 view .LVU614
 2493 06ae 01F66C23 		addw	r3, r1, #2668
 2494              	.LBE1354:
 2495              	.LBE1368:
 2496              	.LBB1369:
 2497              	.LBB1346:
  64:../DaisyExamples/DaisySP//Source/Utility/delayline.h ****         write_ptr_        = (write_ptr_ - 1 + max_size) % max_size;
 2498              		.loc 14 64 27 view .LVU615
 2499 06b2 00EB820C 		add	ip, r0, r2, lsl #2
 2500              	.LVL86:
  64:../DaisyExamples/DaisySP//Source/Utility/delayline.h ****         write_ptr_        = (write_ptr_ - 1 + max_size) % max_size;
 2501              		.loc 14 64 27 view .LVU616
 2502              	.LBE1346:
 2503              	.LBE1369:
 2504              	.LBB1370:
 2505              	.LBB1355:
  78:singingbowl.h **** 
 2506              		.loc 13 78 35 view .LVU617
 2507 06b6 01F65821 		addw	r1, r1, #2648
  78:singingbowl.h **** 
 2508              		.loc 13 78 29 view .LVU618
 2509 06ba 00F58052 		add	r2, r0, #4096
  78:singingbowl.h **** 
 2510              		.loc 13 78 39 view .LVU619
ARM GAS  /var/folders/1p/hl98tgf51p19ck4ldyh6xb6c0000gn/T//ccZqo17l.s 			page 72


 2511 06be D3ED007A 		vldr.32	s15, [r3]
 2512 06c2 D1ED005A 		vldr.32	s11, [r1]
 2513              	.LVL87:
  78:singingbowl.h **** 
 2514              		.loc 13 78 24 view .LVU620
 2515 06c6 183B     		subs	r3, r3, #24
  78:singingbowl.h **** 
 2516              		.loc 13 78 29 view .LVU621
 2517 06c8 02F66822 		addw	r2, r2, #2664
 2518              	.LBE1355:
 2519              	.LBE1370:
 2520              	.LBB1371:
 2521              	.LBB1347:
  65:../DaisyExamples/DaisySP//Source/Utility/delayline.h ****     }
 2522              		.loc 14 65 57 view .LVU622
 2523 06cc 8D49     		ldr	r1, .L76+12
 2524              	.LBE1347:
 2525              	.LBE1371:
 2526              	.LBB1372:
 2527              	.LBB1356:
  78:singingbowl.h **** 
 2528              		.loc 13 78 33 view .LVU623
 2529 06ce 67EEE57A 		vnmul.f32	s15, s15, s11
 2530              	.LBE1356:
 2531              	.LBE1372:
 142:singingbowl.h **** 
 2532              		.loc 13 142 21 view .LVU624
 2533 06d2 90EDB16A 		vldr.32	s12, [r0, #708]
 2534              	.LBB1373:
 2535              	.LBB1357:
  78:singingbowl.h **** 
 2536              		.loc 13 78 29 view .LVU625
 2537 06d6 D2ED005A 		vldr.32	s11, [r2]
 2538              	.LBE1357:
 2539              	.LBE1373:
 157:singingbowl.h **** 
 2540              		.loc 13 157 39 view .LVU626
 2541 06da 24EE055A 		vmul.f32	s10, s8, s10
 2542              	.LBB1374:
 2543              	.LBB1375:
 2544              		.loc 14 74 30 view .LVU627
 2545 06de 90EDB33A 		vldr.32	s6, [r0, #716]
 2546              	.LBE1375:
 2547              	.LBE1374:
 142:singingbowl.h **** 
 2548              		.loc 13 142 21 view .LVU628
 2549 06e2 37EE066A 		vadd.f32	s12, s14, s12
 2550              	.LBB1384:
 2551              	.LBB1358:
  85:singingbowl.h ****         y1_ = output;
 2552              		.loc 13 85 13 view .LVU629
 2553 06e6 C3ED065A 		vstr.32	s11, [r3, #24]
  78:singingbowl.h **** 
 2554              		.loc 13 78 33 view .LVU630
 2555 06ea D3ED002A 		vldr.32	s5, [r3]
 2556              	.LBE1358:
 2557              	.LBE1384:
ARM GAS  /var/folders/1p/hl98tgf51p19ck4ldyh6xb6c0000gn/T//ccZqo17l.s 			page 73


 2558              	.LBB1385:
 2559              	.LBB1348:
  65:../DaisyExamples/DaisySP//Source/Utility/delayline.h ****     }
 2560              		.loc 14 65 57 view .LVU631
 2561 06ee A1FB0AE3 		umull	lr, r3, r1, r10
 2562 06f2 40F2DC5E 		movw	lr, #1500
 2563 06f6 5B09     		lsrs	r3, r3, #5
 2564              	.LBE1348:
 2565              	.LBE1385:
 2566              	.LBB1386:
 2567              	.LBB1359:
  78:singingbowl.h **** 
 2568              		.loc 13 78 33 view .LVU632
 2569 06f8 E2EEA57A 		vfma.f32	s15, s5, s11
 2570              	.LBE1359:
 2571              	.LBE1386:
 2572              	.LBB1387:
 2573              	.LBB1349:
  65:../DaisyExamples/DaisySP//Source/Utility/delayline.h ****     }
 2574              		.loc 14 65 57 view .LVU633
 2575 06fc 0EFB13A3 		mls	r3, lr, r3, r10
 2576              	.LBE1349:
 2577              	.LBE1387:
 2578              	.LBB1388:
 2579              	.LBB1360:
  78:singingbowl.h **** 
 2580              		.loc 13 78 53 view .LVU634
 2581 0700 A2F1040A 		sub	r10, r2, #4
 2582              	.LBE1360:
 2583              	.LBE1388:
 2584              	.LBB1389:
 2585              	.LBB1350:
  65:../DaisyExamples/DaisySP//Source/Utility/delayline.h ****     }
 2586              		.loc 14 65 27 view .LVU635
 2587 0704 C0F8D032 		str	r3, [r0, #720]
 2588              	.LBE1350:
 2589              	.LBE1389:
 2590              	.LBB1390:
 2591              	.LBB1376:
  72:../DaisyExamples/DaisySP//Source/Utility/delayline.h ****         T b = line_[(write_ptr_ + delay_ + 1) % max_size];
 2592              		.loc 14 72 33 view .LVU636
 2593 0708 D0F8D402 		ldr	r0, [r0, #724]
 2594              	.LBE1376:
 2595              	.LBE1390:
 2596              	.LBB1391:
 2597              	.LBB1361:
  78:singingbowl.h **** 
 2598              		.loc 13 78 45 view .LVU637
 2599 070c DAED005A 		vldr.32	s11, [r10]
 2600              	.LBE1361:
 2601              	.LBE1391:
 2602              	.LBB1392:
 2603              	.LBB1377:
  72:../DaisyExamples/DaisySP//Source/Utility/delayline.h ****         T b = line_[(write_ptr_ + delay_ + 1) % max_size];
 2604              		.loc 14 72 33 view .LVU638
 2605 0710 0344     		add	r3, r3, r0
 2606              	.LBE1377:
ARM GAS  /var/folders/1p/hl98tgf51p19ck4ldyh6xb6c0000gn/T//ccZqo17l.s 			page 74


 2607              	.LBE1392:
 2608              	.LBB1393:
 2609              	.LBB1362:
  78:singingbowl.h **** 
 2610              		.loc 13 78 47 view .LVU639
 2611 0712 A2F10C00 		sub	r0, r2, #12
  78:singingbowl.h **** 
 2612              		.loc 13 78 45 view .LVU640
 2613 0716 D0ED002A 		vldr.32	s5, [r0]
 2614              	.LBE1362:
 2615              	.LBE1393:
 2616              	.LBB1394:
 2617              	.LBB1378:
  73:../DaisyExamples/DaisySP//Source/Utility/delayline.h ****         return a + (b - a) * frac_;
 2618              		.loc 14 73 42 view .LVU641
 2619 071a 581C     		adds	r0, r3, #1
 2620              	.LBE1378:
 2621              	.LBE1394:
 2622              	.LBB1395:
 2623              	.LBB1363:
  78:singingbowl.h **** 
 2624              		.loc 13 78 45 view .LVU642
 2625 071c E2EEE57A 		vfms.f32	s15, s5, s11
  78:singingbowl.h **** 
 2626              		.loc 13 78 15 view .LVU643
 2627 0720 76EE277A 		vadd.f32	s15, s12, s15
  86:singingbowl.h **** 
 2628              		.loc 13 86 13 view .LVU644
 2629 0724 C2ED007A 		vstr.32	s15, [r2]
 2630              	.LBE1363:
 2631              	.LBE1395:
 2632              	.LBB1396:
 2633              	.LBB1379:
  72:../DaisyExamples/DaisySP//Source/Utility/delayline.h ****         T b = line_[(write_ptr_ + delay_ + 1) % max_size];
 2634              		.loc 14 72 43 view .LVU645
 2635 0728 A1FB03B2 		umull	fp, r2, r1, r3
  73:../DaisyExamples/DaisySP//Source/Utility/delayline.h ****         return a + (b - a) * frac_;
 2636              		.loc 14 73 47 view .LVU646
 2637 072c A1FB00B1 		umull	fp, r1, r1, r0
  72:../DaisyExamples/DaisySP//Source/Utility/delayline.h ****         T b = line_[(write_ptr_ + delay_ + 1) % max_size];
 2638              		.loc 14 72 43 view .LVU647
 2639 0730 5209     		lsrs	r2, r2, #5
  73:../DaisyExamples/DaisySP//Source/Utility/delayline.h ****         return a + (b - a) * frac_;
 2640              		.loc 14 73 47 view .LVU648
 2641 0732 4909     		lsrs	r1, r1, #5
  72:../DaisyExamples/DaisySP//Source/Utility/delayline.h ****         T b = line_[(write_ptr_ + delay_ + 1) % max_size];
 2642              		.loc 14 72 43 view .LVU649
 2643 0734 0EFB1233 		mls	r3, lr, r2, r3
  72:../DaisyExamples/DaisySP//Source/Utility/delayline.h ****         T b = line_[(write_ptr_ + delay_ + 1) % max_size];
 2644              		.loc 14 72 11 view .LVU650
 2645 0738 744A     		ldr	r2, .L76+20
  73:../DaisyExamples/DaisySP//Source/Utility/delayline.h ****         return a + (b - a) * frac_;
 2646              		.loc 14 73 47 view .LVU651
 2647 073a 0EFB1100 		mls	r0, lr, r1, r0
  72:../DaisyExamples/DaisySP//Source/Utility/delayline.h ****         T b = line_[(write_ptr_ + delay_ + 1) % max_size];
 2648              		.loc 14 72 11 view .LVU652
 2649 073e 02EB8303 		add	r3, r2, r3, lsl #2
ARM GAS  /var/folders/1p/hl98tgf51p19ck4ldyh6xb6c0000gn/T//ccZqo17l.s 			page 75


 2650              	.LBE1379:
 2651              	.LBE1396:
 2652              	.LBB1397:
 2653              	.LBB1364:
  81:singingbowl.h ****         x1_ = input;
 2654              		.loc 13 81 15 view .LVU653
 2655 0742 02F5D351 		add	r1, r2, #6752
 2656              	.LBE1364:
 2657              	.LBE1397:
 2658              	.LBB1398:
 2659              	.LBB1380:
  73:../DaisyExamples/DaisySP//Source/Utility/delayline.h ****         return a + (b - a) * frac_;
 2660              		.loc 14 73 11 view .LVU654
 2661 0746 02EB8000 		add	r0, r2, r0, lsl #2
 2662              	.LBE1380:
 2663              	.LBE1398:
 2664              	.LBE1417:
 2665              	.LBE1427:
 2666              	.LBB1428:
 2667              	.LBB1333:
 157:singingbowl.h **** 
 2668              		.loc 13 157 23 view .LVU655
 2669 074a A2F5A042 		sub	r2, r2, #20480
 2670 074e 02F61822 		addw	r2, r2, #2584
 2671 0752 C2ED004A 		vstr.32	s9, [r2]
 160:singingbowl.h **** 
 2672              		.loc 13 160 9 is_stmt 1 view .LVU656
 2673              	.LBE1333:
 2674              	.LBE1428:
 2675              	.LBB1429:
 2676              	.LBB1418:
 2677              	.LBB1399:
 2678              	.LBB1365:
  81:singingbowl.h ****         x1_ = input;
 2679              		.loc 13 81 13 is_stmt 0 view .LVU657
 2680 0756 0A68     		ldr	r2, [r1]	@ float
  82:singingbowl.h **** 
 2681              		.loc 13 82 13 view .LVU658
 2682 0758 81ED006A 		vstr.32	s12, [r1]
  81:singingbowl.h ****         x1_ = input;
 2683              		.loc 13 81 13 view .LVU659
 2684 075c CAF80020 		str	r2, [r10]	@ float
 2685              	.LBE1365:
 2686              	.LBE1399:
 2687              	.LBB1400:
 2688              	.LBB1351:
  64:../DaisyExamples/DaisySP//Source/Utility/delayline.h ****         write_ptr_        = (write_ptr_ - 1 + max_size) % max_size;
 2689              		.loc 14 64 27 view .LVU660
 2690 0760 CCEDB67A 		vstr.32	s15, [ip, #728]
 2691              	.LBE1351:
 2692              	.LBE1400:
 2693              	.LBB1401:
 2694              	.LBB1381:
  72:../DaisyExamples/DaisySP//Source/Utility/delayline.h ****         T b = line_[(write_ptr_ + delay_ + 1) % max_size];
 2695              		.loc 14 72 11 view .LVU661
 2696 0764 D3EDB67A 		vldr.32	s15, [r3, #728]
 2697              		.loc 14 74 23 view .LVU662
ARM GAS  /var/folders/1p/hl98tgf51p19ck4ldyh6xb6c0000gn/T//ccZqo17l.s 			page 76


 2698 0768 90EDB66A 		vldr.32	s12, [r0, #728]
 2699              	.LBE1381:
 2700              	.LBE1401:
 2701              	.LBE1418:
 2702              	.LBE1429:
 2703              	.LBB1430:
 2704              	.LBB1334:
 160:singingbowl.h **** 
 2705              		.loc 13 160 18 view .LVU663
 2706 076c 664A     		ldr	r2, .L76+16
 2707              	.LBE1334:
 2708              	.LBE1430:
 2709              	.LBB1431:
 2710              	.LBB1419:
 2711              	.LBB1402:
 2712              	.LBB1382:
 2713              		.loc 14 74 23 view .LVU664
 2714 076e 36EE676A 		vsub.f32	s12, s12, s15
 2715              	.LBE1382:
 2716              	.LBE1402:
 2717              	.LBE1419:
 2718              	.LBE1431:
 2719              	.LBB1432:
 2720              	.LBB1335:
 160:singingbowl.h **** 
 2721              		.loc 13 160 18 view .LVU665
 2722 0772 02F61C23 		addw	r3, r2, #2588
 2723              	.LBE1335:
 2724              	.LBE1432:
 2725              	.LBB1433:
 2726              	.LBB1420:
 2727              	.LBB1403:
 2728              	.LBB1383:
 2729              		.loc 14 74 30 view .LVU666
 2730 0776 E6EE037A 		vfma.f32	s15, s12, s6
 2731              	.LBE1383:
 2732              	.LBE1403:
 2733              	.LBE1420:
 2734              	.LBE1433:
 2735              	.LBB1434:
 2736              	.LBB1336:
 160:singingbowl.h **** 
 2737              		.loc 13 160 18 view .LVU667
 2738 077a C3ED003A 		vstr.32	s7, [r3]
 2739              	.LBE1336:
 2740              	.LBE1434:
 2741              	.LBB1435:
 2742              	.LBB1421:
 2743              	.LBB1404:
 2744              	.LBB1405:
  15:singingbowl.h ****     if (totalVelocity == 0)
 2745              		.loc 13 15 11 view .LVU668
 2746 077e B0EE456A 		vmov.f32	s12, s10
 2747              	.LBE1405:
 2748              	.LBE1404:
 157:singingbowl.h **** 
 2749              		.loc 13 157 80 view .LVU669
ARM GAS  /var/folders/1p/hl98tgf51p19ck4ldyh6xb6c0000gn/T//ccZqo17l.s 			page 77


 2750 0782 37EE277A 		vadd.f32	s14, s14, s15
 2751              	.LVL88:
 2752              	.LBB1408:
 2753              	.LBB1409:
 2754              		.loc 15 76 31 view .LVU670
 2755 0786 B0EEC77A 		vabs.f32	s14, s14
 2756              	.LBE1409:
 2757              	.LBE1408:
 2758              	.LBE1421:
 2759              	.LBE1435:
 2760              	.LBB1436:
 2761              	.LBB1337:
 162:singingbowl.h ****     }
 2762              		.loc 13 162 9 is_stmt 1 view .LVU671
 2763              	.LVL89:
 162:singingbowl.h ****     }
 2764              		.loc 13 162 9 is_stmt 0 view .LVU672
 2765              	.LBE1337:
 2766              	.LBE1436:
 210:singingbowl.h ****         over_output += over_modals[1].Process(over_output) * -1.0f;
 2767              		.loc 13 210 9 is_stmt 1 view .LVU673
 2768              	.LBB1437:
 2769              	.LBI1341:
 137:singingbowl.h ****         // Mix Source with Feedback
 2770              		.loc 13 137 11 view .LVU674
 2771              	.LBB1422:
 142:singingbowl.h **** 
 2772              		.loc 13 142 9 view .LVU675
 148:singingbowl.h **** 
 2773              		.loc 13 148 9 view .LVU676
 2774              	.LBB1411:
 2775              	.LBI1352:
  77:singingbowl.h ****         float output = b_ * y1_ - a1_ * y2_ - a2_ * x2_ + input;
 2776              		.loc 13 77 11 view .LVU677
 2777              	.LBB1366:
  78:singingbowl.h **** 
 2778              		.loc 13 78 9 view .LVU678
  81:singingbowl.h ****         x1_ = input;
 2779              		.loc 13 81 9 view .LVU679
  82:singingbowl.h **** 
 2780              		.loc 13 82 9 view .LVU680
  85:singingbowl.h ****         y1_ = output;
 2781              		.loc 13 85 9 view .LVU681
  86:singingbowl.h **** 
 2782              		.loc 13 86 9 view .LVU682
  88:singingbowl.h ****     }
 2783              		.loc 13 88 9 view .LVU683
  88:singingbowl.h ****     }
 2784              		.loc 13 88 9 is_stmt 0 view .LVU684
 2785              	.LBE1366:
 2786              	.LBE1411:
 151:singingbowl.h **** 
 2787              		.loc 13 151 9 is_stmt 1 view .LVU685
 2788              	.LBB1412:
 2789              	.LBI1343:
  62:../DaisyExamples/DaisySP//Source/Utility/delayline.h ****     {
 2790              		.loc 14 62 17 view .LVU686
ARM GAS  /var/folders/1p/hl98tgf51p19ck4ldyh6xb6c0000gn/T//ccZqo17l.s 			page 78


  62:../DaisyExamples/DaisySP//Source/Utility/delayline.h ****     {
 2791              		.loc 14 62 17 is_stmt 0 view .LVU687
 2792              	.LBE1412:
 154:singingbowl.h **** 
 2793              		.loc 13 154 9 is_stmt 1 view .LVU688
 2794              	.LBB1413:
 2795              	.LBI1374:
  70:../DaisyExamples/DaisySP//Source/Utility/delayline.h ****     {
 2796              		.loc 14 70 20 view .LVU689
  70:../DaisyExamples/DaisySP//Source/Utility/delayline.h ****     {
 2797              		.loc 14 70 20 is_stmt 0 view .LVU690
 2798              	.LBE1413:
 157:singingbowl.h **** 
 2799              		.loc 13 157 9 is_stmt 1 view .LVU691
 157:singingbowl.h **** 
 2800              		.loc 13 157 9 is_stmt 0 view .LVU692
 2801              	.LBE1422:
 2802              	.LBE1437:
 2803              	.LBE1531:
 2804              	.LBE1539:
 2805              	.LBE3545:
 2806              	.LBE3552:
 2807              		.loc 15 76 5 is_stmt 1 view .LVU693
 2808              	.LBB3553:
 2809              	.LBB3546:
 2810              	.LBB1540:
 2811              	.LBB1532:
 2812              	.LBB1438:
 2813              	.LBB1423:
 2814              	.LBB1414:
 2815              	.LBI1408:
  75:/Applications/ARM/arm-none-eabi/include/c++/10.3.1/bits/std_abs.h ****   { return __builtin_fabsf(__x); }
 2816              		.loc 15 75 3 view .LVU694
 2817              	.LBB1410:
 2818              		.loc 15 76 5 view .LVU695
 2819              		.loc 15 76 5 is_stmt 0 view .LVU696
 2820              	.LBE1410:
 2821              	.LBE1414:
 2822              	.LBB1415:
 2823              	.LBI1404:
  14:singingbowl.h ****     float totalVelocity = (initialVelocity + relativeVelocity);
 2824              		.loc 13 14 7 is_stmt 1 view .LVU697
 2825              	.LBB1406:
  15:singingbowl.h ****     if (totalVelocity == 0)
 2826              		.loc 13 15 5 view .LVU698
  15:singingbowl.h ****     if (totalVelocity == 0)
 2827              		.loc 13 15 11 is_stmt 0 view .LVU699
 2828 078a A4EE076A 		vfma.f32	s12, s8, s14
 2829              	.LVL90:
  16:singingbowl.h ****         return 0;
 2830              		.loc 13 16 5 is_stmt 1 view .LVU700
 2831 078e B5EE406A 		vcmp.f32	s12, #0
 2832 0792 F1EE10FA 		vmrs	APSR_nzcv, FPSCR
 2833 0796 01F01A84 		beq	.L50
  19:singingbowl.h **** }
 2834              		.loc 13 19 9 view .LVU701
  19:singingbowl.h **** }
ARM GAS  /var/folders/1p/hl98tgf51p19ck4ldyh6xb6c0000gn/T//ccZqo17l.s 			page 79


 2835              		.loc 13 19 71 is_stmt 0 view .LVU702
 2836 079a DFED585A 		vldr.32	s11, .L76+4
  19:singingbowl.h **** }
 2837              		.loc 13 19 105 view .LVU703
 2838 079e 9FED587A 		vldr.32	s14, .L76+8
  19:singingbowl.h **** }
 2839              		.loc 13 19 71 view .LVU704
 2840 07a2 25EE255A 		vmul.f32	s10, s10, s11
 2841              	.LVL91:
  19:singingbowl.h **** }
 2842              		.loc 13 19 90 view .LVU705
 2843 07a6 C5EE065A 		vdiv.f32	s11, s10, s12
  19:singingbowl.h **** }
 2844              		.loc 13 19 105 view .LVU706
 2845 07aa 75EE875A 		vadd.f32	s11, s11, s14
 2846              	.L24:
 2847              	.LVL92:
  19:singingbowl.h **** }
 2848              		.loc 13 19 105 view .LVU707
 2849              	.LBE1406:
 2850              	.LBE1415:
 157:singingbowl.h **** 
 2851              		.loc 13 157 23 view .LVU708
 2852 07ae 574B     		ldr	r3, .L76+20
 160:singingbowl.h **** 
 2853              		.loc 13 160 27 view .LVU709
 2854 07b0 65EEA73A 		vmul.f32	s7, s11, s15
 2855              	.LBE1423:
 2856              	.LBE1438:
 2857              	.LBB1439:
 2858              	.LBB1440:
 2859              	.LBB1441:
 2860              	.LBB1442:
  78:singingbowl.h **** 
 2861              		.loc 13 78 39 view .LVU710
 2862 07b4 97EDA97A 		vldr.32	s14, [r7, #676]
 2863              	.LBE1442:
 2864              	.LBE1441:
 2865              	.LBB1453:
 2866              	.LBB1454:
  65:../DaisyExamples/DaisySP//Source/Utility/delayline.h ****     }
 2867              		.loc 14 65 57 view .LVU711
 2868 07b8 40F2DC5A 		movw	r10, #1500
  64:../DaisyExamples/DaisySP//Source/Utility/delayline.h ****         write_ptr_        = (write_ptr_ - 1 + max_size) % max_size;
 2869              		.loc 14 64 15 view .LVU712
 2870 07bc 03F58051 		add	r1, r3, #4096
 2871              	.LBE1454:
 2872              	.LBE1453:
 2873              	.LBE1440:
 2874              	.LBE1439:
 2875              	.LBB1520:
 2876              	.LBB1424:
 157:singingbowl.h **** 
 2877              		.loc 13 157 23 view .LVU713
 2878 07c0 C3EDB05A 		vstr.32	s11, [r3, #704]
 160:singingbowl.h **** 
 2879              		.loc 13 160 9 is_stmt 1 view .LVU714
ARM GAS  /var/folders/1p/hl98tgf51p19ck4ldyh6xb6c0000gn/T//ccZqo17l.s 			page 80


 160:singingbowl.h **** 
 2880              		.loc 13 160 18 is_stmt 0 view .LVU715
 2881 07c4 C3EDB13A 		vstr.32	s7, [r3, #708]
 162:singingbowl.h ****     }
 2882              		.loc 13 162 9 is_stmt 1 view .LVU716
 2883              	.LVL93:
 162:singingbowl.h ****     }
 2884              		.loc 13 162 9 is_stmt 0 view .LVU717
 2885              	.LBE1424:
 2886              	.LBE1520:
 210:singingbowl.h ****         over_output += over_modals[1].Process(over_output) * -1.0f;
 2887              		.loc 13 210 62 view .LVU718
 2888 07c8 B1EE67AA 		vneg.f32	s20, s15
 2889              	.LVL94:
 211:singingbowl.h ****         //over_output += over_modals[2].Process(over_output) * -1.0f;
 2890              		.loc 13 211 9 is_stmt 1 view .LVU719
 2891              	.LBB1521:
 2892              	.LBI1439:
 137:singingbowl.h ****         // Mix Source with Feedback
 2893              		.loc 13 137 11 view .LVU720
 2894              	.LBB1514:
 142:singingbowl.h **** 
 2895              		.loc 13 142 9 view .LVU721
 2896              	.LBB1464:
 2897              	.LBB1455:
  64:../DaisyExamples/DaisySP//Source/Utility/delayline.h ****         write_ptr_        = (write_ptr_ - 1 + max_size) % max_size;
 2898              		.loc 14 64 15 is_stmt 0 view .LVU722
 2899 07cc D1F8083B 		ldr	r3, [r1, #2824]
 2900              	.LBE1455:
 2901              	.LBE1464:
 142:singingbowl.h **** 
 2902              		.loc 13 142 38 view .LVU723
 2903 07d0 0A46     		mov	r2, r1
 2904              	.LBB1465:
 2905              	.LBB1466:
  72:../DaisyExamples/DaisySP//Source/Utility/delayline.h ****         T b = line_[(write_ptr_ + delay_ + 1) % max_size];
 2906              		.loc 14 72 33 view .LVU724
 2907 07d2 D1F80C0B 		ldr	r0, [r1, #2828]
 2908              	.LBE1466:
 2909              	.LBE1465:
 142:singingbowl.h **** 
 2910              		.loc 13 142 38 view .LVU725
 2911 07d6 01F6FC21 		addw	r1, r1, #2812
 2912              	.LBB1474:
 2913              	.LBB1456:
  65:../DaisyExamples/DaisySP//Source/Utility/delayline.h ****     }
 2914              		.loc 14 65 45 view .LVU726
 2915 07da 03F2DB5C 		addw	ip, r3, #1499
 2916              	.LBE1456:
 2917              	.LBE1474:
 2918              	.LBB1475:
 2919              	.LBB1443:
  78:singingbowl.h **** 
 2920              		.loc 13 78 39 view .LVU727
 2921 07de 97EDA46A 		vldr.32	s12, [r7, #656]
 2922 07e2 D1ED005A 		vldr.32	s11, [r1]
 2923              	.LBE1443:
ARM GAS  /var/folders/1p/hl98tgf51p19ck4ldyh6xb6c0000gn/T//ccZqo17l.s 			page 81


 2924              	.LBE1475:
 2925              	.LBB1476:
 2926              	.LBB1457:
  65:../DaisyExamples/DaisySP//Source/Utility/delayline.h ****     }
 2927              		.loc 14 65 57 view .LVU728
 2928 07e6 4749     		ldr	r1, .L76+12
 2929              	.LBE1457:
 2930              	.LBE1476:
 2931              	.LBB1477:
 2932              	.LBB1444:
  78:singingbowl.h **** 
 2933              		.loc 13 78 33 view .LVU729
 2934 07e8 27EE467A 		vnmul.f32	s14, s14, s12
  78:singingbowl.h **** 
 2935              		.loc 13 78 29 view .LVU730
 2936 07ec 97EDA85A 		vldr.32	s10, [r7, #672]
 2937 07f0 75EEE75A 		vsub.f32	s11, s11, s15
 2938              	.LVL95:
  78:singingbowl.h **** 
 2939              		.loc 13 78 29 view .LVU731
 2940              	.LBE1444:
 2941              	.LBE1477:
 148:singingbowl.h **** 
 2942              		.loc 13 148 9 is_stmt 1 view .LVU732
 2943              	.LBB1478:
 2944              	.LBI1441:
  77:singingbowl.h ****         float output = b_ * y1_ - a1_ * y2_ - a2_ * x2_ + input;
 2945              		.loc 13 77 11 view .LVU733
 2946              	.LBB1445:
  78:singingbowl.h **** 
 2947              		.loc 13 78 9 view .LVU734
 2948              	.LBE1445:
 2949              	.LBE1478:
 2950              	.LBB1479:
 2951              	.LBB1458:
  65:../DaisyExamples/DaisySP//Source/Utility/delayline.h ****     }
 2952              		.loc 14 65 57 is_stmt 0 view .LVU735
 2953 07f4 A1FB0CE1 		umull	lr, r1, r1, ip
 2954              	.LBE1458:
 2955              	.LBE1479:
 2956              	.LBB1480:
 2957              	.LBB1446:
  78:singingbowl.h **** 
 2958              		.loc 13 78 33 view .LVU736
 2959 07f8 97EDA33A 		vldr.32	s6, [r7, #652]
  78:singingbowl.h **** 
 2960              		.loc 13 78 45 view .LVU737
 2961 07fc D7EDA74A 		vldr.32	s9, [r7, #668]
 2962              	.LBE1446:
 2963              	.LBE1480:
 2964              	.LBB1481:
 2965              	.LBB1482:
 2966              		.loc 15 76 31 view .LVU738
 2967 0800 B0EEE76A 		vabs.f32	s12, s15
 2968              	.LBE1482:
 2969              	.LBE1481:
 2970              	.LBB1484:
ARM GAS  /var/folders/1p/hl98tgf51p19ck4ldyh6xb6c0000gn/T//ccZqo17l.s 			page 82


 2971              	.LBB1459:
  65:../DaisyExamples/DaisySP//Source/Utility/delayline.h ****     }
 2972              		.loc 14 65 57 view .LVU739
 2973 0804 4909     		lsrs	r1, r1, #5
 2974              	.LBE1459:
 2975              	.LBE1484:
 2976              	.LBB1485:
 2977              	.LBB1447:
  78:singingbowl.h **** 
 2978              		.loc 13 78 33 view .LVU740
 2979 0806 A3EE057A 		vfma.f32	s14, s6, s10
  78:singingbowl.h **** 
 2980              		.loc 13 78 45 view .LVU741
 2981 080a 97EDA54A 		vldr.32	s8, [r7, #660]
 2982              	.LBE1447:
 2983              	.LBE1485:
 2984              	.LBB1486:
 2985              	.LBB1460:
  65:../DaisyExamples/DaisySP//Source/Utility/delayline.h ****     }
 2986              		.loc 14 65 57 view .LVU742
 2987 080e 0AFB11C1 		mls	r1, r10, r1, ip
 2988              	.LBE1460:
 2989              	.LBE1486:
 2990              	.LBB1487:
 2991              	.LBB1448:
  85:singingbowl.h ****         y1_ = output;
 2992              		.loc 13 85 13 view .LVU743
 2993 0812 87EDA95A 		vstr.32	s10, [r7, #676]
 2994              	.LBE1448:
 2995              	.LBE1487:
 2996              	.LBB1488:
 2997              	.LBB1467:
  72:../DaisyExamples/DaisySP//Source/Utility/delayline.h ****         T b = line_[(write_ptr_ + delay_ + 1) % max_size];
 2998              		.loc 14 72 33 view .LVU744
 2999 0816 0844     		add	r0, r0, r1
 3000              	.LBE1467:
 3001              	.LBE1488:
 3002              	.LBB1489:
 3003              	.LBB1461:
  65:../DaisyExamples/DaisySP//Source/Utility/delayline.h ****     }
 3004              		.loc 14 65 27 view .LVU745
 3005 0818 C2F8081B 		str	r1, [r2, #2824]
  64:../DaisyExamples/DaisySP//Source/Utility/delayline.h ****         write_ptr_        = (write_ptr_ - 1 + max_size) % max_size;
 3006              		.loc 14 64 27 view .LVU746
 3007 081c 02F60831 		addw	r1, r2, #2824
 3008              	.LBE1461:
 3009              	.LBE1489:
 3010              	.LBB1490:
 3011              	.LBB1468:
  72:../DaisyExamples/DaisySP//Source/Utility/delayline.h ****         T b = line_[(write_ptr_ + delay_ + 1) % max_size];
 3012              		.loc 14 72 43 view .LVU747
 3013 0820 384A     		ldr	r2, .L76+12
  73:../DaisyExamples/DaisySP//Source/Utility/delayline.h ****         return a + (b - a) * frac_;
 3014              		.loc 14 73 42 view .LVU748
 3015 0822 00F1010E 		add	lr, r0, #1
 3016              	.LBE1468:
 3017              	.LBE1490:
ARM GAS  /var/folders/1p/hl98tgf51p19ck4ldyh6xb6c0000gn/T//ccZqo17l.s 			page 83


 3018              	.LBB1491:
 3019              	.LBB1449:
  78:singingbowl.h **** 
 3020              		.loc 13 78 45 view .LVU749
 3021 0826 A4EE647A 		vfms.f32	s14, s8, s9
 3022              	.LBE1449:
 3023              	.LBE1491:
 3024              	.LBB1492:
 3025              	.LBB1462:
  64:../DaisyExamples/DaisySP//Source/Utility/delayline.h ****         write_ptr_        = (write_ptr_ - 1 + max_size) % max_size;
 3026              		.loc 14 64 27 view .LVU750
 3027 082a 01EB830C 		add	ip, r1, r3, lsl #2
 3028              	.LBE1462:
 3029              	.LBE1492:
 3030              	.LBB1493:
 3031              	.LBB1469:
  72:../DaisyExamples/DaisySP//Source/Utility/delayline.h ****         T b = line_[(write_ptr_ + delay_ + 1) % max_size];
 3032              		.loc 14 72 43 view .LVU751
 3033 082e A2FB00B3 		umull	fp, r3, r2, r0
  73:../DaisyExamples/DaisySP//Source/Utility/delayline.h ****         return a + (b - a) * frac_;
 3034              		.loc 14 73 47 view .LVU752
 3035 0832 A2FB0EB2 		umull	fp, r2, r2, lr
  72:../DaisyExamples/DaisySP//Source/Utility/delayline.h ****         T b = line_[(write_ptr_ + delay_ + 1) % max_size];
 3036              		.loc 14 72 43 view .LVU753
 3037 0836 5B09     		lsrs	r3, r3, #5
  73:../DaisyExamples/DaisySP//Source/Utility/delayline.h ****         return a + (b - a) * frac_;
 3038              		.loc 14 73 47 view .LVU754
 3039 0838 5209     		lsrs	r2, r2, #5
  72:../DaisyExamples/DaisySP//Source/Utility/delayline.h ****         T b = line_[(write_ptr_ + delay_ + 1) % max_size];
 3040              		.loc 14 72 43 view .LVU755
 3041 083a 0AFB1303 		mls	r3, r10, r3, r0
  73:../DaisyExamples/DaisySP//Source/Utility/delayline.h ****         return a + (b - a) * frac_;
 3042              		.loc 14 73 47 view .LVU756
 3043 083e 0AFB12EE 		mls	lr, r10, r2, lr
 3044              	.LBE1469:
 3045              	.LBE1493:
 3046              	.LBB1494:
 3047              	.LBB1450:
  78:singingbowl.h **** 
 3048              		.loc 13 78 15 view .LVU757
 3049 0842 35EE877A 		vadd.f32	s14, s11, s14
 3050              	.LVL96:
  81:singingbowl.h ****         x1_ = input;
 3051              		.loc 13 81 9 is_stmt 1 view .LVU758
  81:singingbowl.h ****         x1_ = input;
 3052              		.loc 13 81 13 is_stmt 0 view .LVU759
 3053 0846 D7F89822 		ldr	r2, [r7, #664]	@ float
 3054              	.LBE1450:
 3055              	.LBE1494:
 3056              	.LBB1495:
 3057              	.LBB1470:
  72:../DaisyExamples/DaisySP//Source/Utility/delayline.h ****         T b = line_[(write_ptr_ + delay_ + 1) % max_size];
 3058              		.loc 14 72 11 view .LVU760
 3059 084a 01EB8303 		add	r3, r1, r3, lsl #2
  73:../DaisyExamples/DaisySP//Source/Utility/delayline.h ****         return a + (b - a) * frac_;
 3060              		.loc 14 73 11 view .LVU761
 3061 084e 01EB8E01 		add	r1, r1, lr, lsl #2
ARM GAS  /var/folders/1p/hl98tgf51p19ck4ldyh6xb6c0000gn/T//ccZqo17l.s 			page 84


 3062              	.LBE1470:
 3063              	.LBE1495:
 3064              	.LBB1496:
 3065              	.LBB1451:
  82:singingbowl.h **** 
 3066              		.loc 13 82 13 view .LVU762
 3067 0852 C7EDA65A 		vstr.32	s11, [r7, #664]
  81:singingbowl.h ****         x1_ = input;
 3068              		.loc 13 81 13 view .LVU763
 3069 0856 C7F89C22 		str	r2, [r7, #668]	@ float
  82:singingbowl.h **** 
 3070              		.loc 13 82 9 is_stmt 1 view .LVU764
  85:singingbowl.h ****         y1_ = output;
 3071              		.loc 13 85 9 view .LVU765
  86:singingbowl.h **** 
 3072              		.loc 13 86 9 view .LVU766
  88:singingbowl.h ****     }
 3073              		.loc 13 88 9 view .LVU767
 3074              	.LVL97:
  88:singingbowl.h ****     }
 3075              		.loc 13 88 9 is_stmt 0 view .LVU768
 3076              	.LBE1451:
 3077              	.LBE1496:
 151:singingbowl.h **** 
 3078              		.loc 13 151 9 is_stmt 1 view .LVU769
 3079              	.LBB1497:
 3080              	.LBI1453:
  62:../DaisyExamples/DaisySP//Source/Utility/delayline.h ****     {
 3081              		.loc 14 62 17 view .LVU770
  62:../DaisyExamples/DaisySP//Source/Utility/delayline.h ****     {
 3082              		.loc 14 62 17 is_stmt 0 view .LVU771
 3083              	.LBE1497:
 154:singingbowl.h **** 
 3084              		.loc 13 154 9 is_stmt 1 view .LVU772
 3085              	.LBB1498:
 3086              	.LBI1465:
  70:../DaisyExamples/DaisySP//Source/Utility/delayline.h ****     {
 3087              		.loc 14 70 20 view .LVU773
 3088              	.LBB1471:
 3089              		.loc 14 74 30 is_stmt 0 view .LVU774
 3090 085a 2D4A     		ldr	r2, .L76+24
 3091              	.LBE1471:
 3092              	.LBE1498:
 3093              	.LBB1499:
 3094              	.LBB1452:
  86:singingbowl.h **** 
 3095              		.loc 13 86 13 view .LVU775
 3096 085c 87EDA87A 		vstr.32	s14, [r7, #672]
 3097              	.LBE1452:
 3098              	.LBE1499:
 3099              	.LBB1500:
 3100              	.LBB1463:
  64:../DaisyExamples/DaisySP//Source/Utility/delayline.h ****         write_ptr_        = (write_ptr_ - 1 + max_size) % max_size;
 3101              		.loc 14 64 27 view .LVU776
 3102 0860 8CED027A 		vstr.32	s14, [ip, #8]
 3103              	.LBE1463:
 3104              	.LBE1500:
ARM GAS  /var/folders/1p/hl98tgf51p19ck4ldyh6xb6c0000gn/T//ccZqo17l.s 			page 85


 3105              	.LBB1501:
 3106              	.LBB1472:
  72:../DaisyExamples/DaisySP//Source/Utility/delayline.h ****         T b = line_[(write_ptr_ + delay_ + 1) % max_size];
 3107              		.loc 14 72 11 view .LVU777
 3108 0864 93ED027A 		vldr.32	s14, [r3, #8]
 3109              	.LVL98:
 3110              		.loc 14 74 30 view .LVU778
 3111 0868 02F60433 		addw	r3, r2, #2820
 3112              		.loc 14 74 23 view .LVU779
 3113 086c D1ED025A 		vldr.32	s11, [r1, #8]
 3114              	.LVL99:
 3115              		.loc 14 74 30 view .LVU780
 3116 0870 93ED005A 		vldr.32	s10, [r3]
 3117              	.LBE1472:
 3118              	.LBE1501:
 157:singingbowl.h **** 
 3119              		.loc 13 157 66 view .LVU781
 3120 0874 02F53063 		add	r3, r2, #2816
 3121              	.LBB1502:
 3122              	.LBB1473:
 3123              		.loc 14 74 23 view .LVU782
 3124 0878 75EEC75A 		vsub.f32	s11, s11, s14
 3125              		.loc 14 74 30 view .LVU783
 3126 087c A5EE857A 		vfma.f32	s14, s11, s10
 3127              	.LVL100:
 3128              		.loc 14 74 30 view .LVU784
 3129              	.LBE1473:
 3130              	.LBE1502:
 157:singingbowl.h **** 
 3131              		.loc 13 157 9 is_stmt 1 view .LVU785
 3132              	.LBB1503:
 3133              	.LBI1481:
  75:/Applications/ARM/arm-none-eabi/include/c++/10.3.1/bits/std_abs.h ****   { return __builtin_fabsf(__x); }
 3134              		.loc 15 75 3 view .LVU786
 3135              	.LBB1483:
 3136              		.loc 15 76 5 view .LVU787
 3137              		.loc 15 76 5 is_stmt 0 view .LVU788
 3138              	.LBE1483:
 3139              	.LBE1503:
 157:singingbowl.h **** 
 3140              		.loc 13 157 66 view .LVU789
 3141 0880 D3ED005A 		vldr.32	s11, [r3]
 157:singingbowl.h **** 
 3142              		.loc 13 157 39 view .LVU790
 3143 0884 26EE256A 		vmul.f32	s12, s12, s11
 3144              	.LVL101:
 3145              	.LBB1504:
 3146              	.LBI1504:
  75:/Applications/ARM/arm-none-eabi/include/c++/10.3.1/bits/std_abs.h ****   { return __builtin_fabsf(__x); }
 3147              		.loc 15 75 3 is_stmt 1 view .LVU791
 3148              	.LBB1505:
 3149              		.loc 15 76 5 view .LVU792
 3150              		.loc 15 76 5 is_stmt 0 view .LVU793
 3151              	.LBE1505:
 3152              	.LBE1504:
 3153              	.LBB1507:
 3154              	.LBI1507:
ARM GAS  /var/folders/1p/hl98tgf51p19ck4ldyh6xb6c0000gn/T//ccZqo17l.s 			page 86


  14:singingbowl.h ****     float totalVelocity = (initialVelocity + relativeVelocity);
 3155              		.loc 13 14 7 is_stmt 1 view .LVU794
 3156              	.LBB1508:
  15:singingbowl.h ****     if (totalVelocity == 0)
 3157              		.loc 13 15 5 view .LVU795
  15:singingbowl.h ****     if (totalVelocity == 0)
 3158              		.loc 13 15 11 is_stmt 0 view .LVU796
 3159 0888 B0EE465A 		vmov.f32	s10, s12
 3160              	.LBE1508:
 3161              	.LBE1507:
 3162              	.LBB1511:
 3163              	.LBB1506:
 3164              		.loc 15 76 31 view .LVU797
 3165 088c 77EE677A 		vsub.f32	s15, s14, s15
 3166              	.LVL102:
 3167              		.loc 15 76 31 view .LVU798
 3168 0890 F0EEE77A 		vabs.f32	s15, s15
 3169              	.LBE1506:
 3170              	.LBE1511:
 3171              	.LBB1512:
 3172              	.LBB1509:
  15:singingbowl.h ****     if (totalVelocity == 0)
 3173              		.loc 13 15 11 view .LVU799
 3174 0894 A5EEA75A 		vfma.f32	s10, s11, s15
 3175              	.LVL103:
  16:singingbowl.h ****         return 0;
 3176              		.loc 13 16 5 is_stmt 1 view .LVU800
 3177 0898 B5EE405A 		vcmp.f32	s10, #0
 3178 089c F1EE10FA 		vmrs	APSR_nzcv, FPSCR
 3179 08a0 01F09183 		beq	.L51
  19:singingbowl.h **** }
 3180              		.loc 13 19 9 view .LVU801
  19:singingbowl.h **** }
 3181              		.loc 13 19 71 is_stmt 0 view .LVU802
 3182 08a4 DFED157A 		vldr.32	s15, .L76+4
  19:singingbowl.h **** }
 3183              		.loc 13 19 105 view .LVU803
 3184 08a8 DFED155A 		vldr.32	s11, .L76+8
  19:singingbowl.h **** }
 3185              		.loc 13 19 71 view .LVU804
 3186 08ac 26EE276A 		vmul.f32	s12, s12, s15
 3187              	.LVL104:
  19:singingbowl.h **** }
 3188              		.loc 13 19 90 view .LVU805
 3189 08b0 C6EE057A 		vdiv.f32	s15, s12, s10
  19:singingbowl.h **** }
 3190              		.loc 13 19 105 view .LVU806
 3191 08b4 77EEA57A 		vadd.f32	s15, s15, s11
 3192              	.L25:
 3193              	.LVL105:
  19:singingbowl.h **** }
 3194              		.loc 13 19 105 view .LVU807
 3195              	.LBE1509:
 3196              	.LBE1512:
 3197              	.LBE1514:
 3198              	.LBE1521:
 3199              	.LBE1532:
ARM GAS  /var/folders/1p/hl98tgf51p19ck4ldyh6xb6c0000gn/T//ccZqo17l.s 			page 87


 3200              	.LBE1540:
 3201              	.LBB1541:
 3202              	.LBB1542:
 3203              		.loc 16 79 52 view .LVU808
 3204 08b8 164B     		ldr	r3, .L76+28
 3205              	.LBE1542:
 3206              	.LBE1541:
 3207              	.LBB1545:
 3208              	.LBB1533:
 3209              		.loc 13 223 43 view .LVU809
 3210 08ba 3AEE47AA 		vsub.f32	s20, s20, s14
 3211              	.LVL106:
 3212              	.LBB1522:
 3213              	.LBB1515:
 157:singingbowl.h **** 
 3214              		.loc 13 157 23 view .LVU810
 3215 08be 144A     		ldr	r2, .L76+24
 160:singingbowl.h **** 
 3216              		.loc 13 160 27 view .LVU811
 3217 08c0 27EE877A 		vmul.f32	s14, s15, s14
 3218              	.LVL107:
 160:singingbowl.h **** 
 3219              		.loc 13 160 27 view .LVU812
 3220              	.LBE1515:
 3221              	.LBE1522:
 3222              	.LBE1533:
 3223              	.LBE1545:
 3224              	.LBB1546:
 3225              	.LBB1543:
 3226              		.loc 16 79 52 view .LVU813
 3227 08c4 93F82A10 		ldrb	r1, [r3, #42]	@ zero_extendqisi2
 3228              	.LVL108:
 3229              		.loc 16 79 52 view .LVU814
 3230              	.LBE1543:
 3231              	.LBE1546:
 115:source.cpp    ****         output += Bowls[2].Process(
 116:source.cpp    ****                 filteredNoise[2] * sineOut * simpleEnv[2].Process(buttons[2].Pressed()) * lPortOut)
 3232              		.loc 11 116 34 view .LVU815
 3233 08c8 69EE8B9A 		vmul.f32	s19, s19, s22
 3234              	.LVL109:
 3235              	.LBB1547:
 3236              	.LBB1534:
 3237              	.LBB1523:
 3238              	.LBB1516:
 157:singingbowl.h **** 
 3239              		.loc 13 157 23 view .LVU816
 3240 08cc 02F6F823 		addw	r3, r2, #2808
 3241              	.LBE1516:
 3242              	.LBE1523:
 3243              		.loc 13 223 43 view .LVU817
 3244 08d0 7AEE266A 		vadd.f32	s13, s20, s13
 3245              	.LVL110:
 3246              		.loc 13 223 43 view .LVU818
 3247              	.LBE1534:
 3248              	.LBE1547:
 3249              		.loc 11 116 66 view .LVU819
 3250 08d4 A1F1FF01 		sub	r1, #255
ARM GAS  /var/folders/1p/hl98tgf51p19ck4ldyh6xb6c0000gn/T//ccZqo17l.s 			page 88


 3251 08d8 0F48     		ldr	r0, .L76+32
 3252              	.LVL111:
 3253              	.LBB1548:
 3254              	.LBB1535:
 3255              	.LBB1524:
 3256              	.LBB1517:
 157:singingbowl.h **** 
 3257              		.loc 13 157 23 view .LVU820
 3258 08da C3ED007A 		vstr.32	s15, [r3]
 160:singingbowl.h **** 
 3259              		.loc 13 160 9 is_stmt 1 view .LVU821
 160:singingbowl.h **** 
 3260              		.loc 13 160 18 is_stmt 0 view .LVU822
 3261 08de 02F6FC23 		addw	r3, r2, #2812
 3262              	.LBE1517:
 3263              	.LBE1524:
 3264              	.LBE1535:
 3265              	.LBE1548:
 3266              		.loc 11 116 66 view .LVU823
 3267 08e2 B1FA81F1 		clz	r1, r1
 113:source.cpp    ****                 filteredNoise[1] * sineOut * simpleEnv[1].Process(buttons[1].Pressed()) * lPortOut)
 3268              		.loc 11 113 16 view .LVU824
 3269 08e6 36EE8CAA 		vadd.f32	s20, s13, s24
 3270              	.LBB1549:
 3271              	.LBB1536:
 3272              	.LBB1525:
 3273              	.LBB1518:
 160:singingbowl.h **** 
 3274              		.loc 13 160 18 view .LVU825
 3275 08ea 83ED007A 		vstr.32	s14, [r3]
 162:singingbowl.h ****     }
 3276              		.loc 13 162 9 is_stmt 1 view .LVU826
 3277              	.LVL112:
 162:singingbowl.h ****     }
 3278              		.loc 13 162 9 is_stmt 0 view .LVU827
 3279              	.LBE1518:
 3280              	.LBE1525:
 3281              		.loc 13 223 9 is_stmt 1 view .LVU828
 3282              		.loc 13 223 9 is_stmt 0 view .LVU829
 3283              	.LBE1536:
 3284              	.LBE1549:
 115:source.cpp    ****                 filteredNoise[2] * sineOut * simpleEnv[2].Process(buttons[2].Pressed()) * lPortOut)
 3285              		.loc 11 115 9 is_stmt 1 view .LVU830
 3286              	.LBB1550:
 3287              	.LBI1541:
 3288              		.loc 16 79 17 view .LVU831
 3289              	.LBB1544:
 3290              		.loc 16 79 35 view .LVU832
 3291              		.loc 16 79 35 is_stmt 0 view .LVU833
 3292              	.LBE1544:
 3293              	.LBE1550:
 3294              		.loc 11 116 66 view .LVU834
 3295 08ee 4909     		lsrs	r1, r1, #5
 3296 08f0 FFF7FEFF 		bl	_ZN7daisysp4Adsr7ProcessEb
 3297              	.LVL113:
 3298 08f4 12E0     		b	.L77
 3299              	.L78:
ARM GAS  /var/folders/1p/hl98tgf51p19ck4ldyh6xb6c0000gn/T//ccZqo17l.s 			page 89


 3300 08f6 00BF     		.align	2
 3301              	.L76:
 3302 08f8 00C00000 		.word	Bowls+49152
 3303 08fc 90C2753D 		.word	1031127696
 3304 0900 6666663F 		.word	1063675494
 3305 0904 F1197605 		.word	91625969
 3306 0908 00D00000 		.word	Bowls+53248
 3307 090c 00200100 		.word	Bowls+73728
 3308 0910 00300100 		.word	Bowls+77824
 3309 0914 00000000 		.word	.LANCHOR0
 3310 0918 60000000 		.word	.LANCHOR11+96
 3311              	.L77:
 3312              	.LBB1551:
 3313              	.LBB1552:
 3314              	.LBB1553:
 3315              	.LBB1554:
 142:singingbowl.h **** 
 3316              		.loc 13 142 21 view .LVU835
 3317 091c F248     		ldr	r0, .L79
 3318              	.LBE1554:
 3319              	.LBE1553:
 3320              	.LBE1552:
 3321              	.LBE1551:
 3322              		.loc 11 116 44 view .LVU836
 3323 091e 69EE809A 		vmul.f32	s19, s19, s0
 3324              	.LBB2004:
 3325              	.LBB1996:
 3326              	.LBB1634:
 3327              	.LBB1627:
 3328              	.LBB1555:
 3329              	.LBB1556:
  64:../DaisyExamples/DaisySP//Source/Utility/delayline.h ****         write_ptr_        = (write_ptr_ - 1 + max_size) % max_size;
 3330              		.loc 14 64 15 view .LVU837
 3331 0922 D0F8BC23 		ldr	r2, [r0, #956]
 3332              	.LBE1556:
 3333              	.LBE1555:
 3334              	.LBB1565:
 3335              	.LBB1566:
  78:singingbowl.h **** 
 3336              		.loc 13 78 41 view .LVU838
 3337 0926 00F58051 		add	r1, r0, #4096
 3338              	.LBE1566:
 3339              	.LBE1565:
 3340              	.LBB1579:
 3341              	.LBB1580:
 3342              		.loc 14 74 30 view .LVU839
 3343 092a 90EDEE5A 		vldr.32	s10, [r0, #952]
 3344              	.LBE1580:
 3345              	.LBE1579:
 3346              	.LBB1586:
 3347              	.LBB1557:
  65:../DaisyExamples/DaisySP//Source/Utility/delayline.h ****     }
 3348              		.loc 14 65 45 view .LVU840
 3349 092e 02F2DB5A 		addw	r10, r2, #1499
 3350              	.LBE1557:
 3351              	.LBE1586:
 3352              	.LBB1587:
ARM GAS  /var/folders/1p/hl98tgf51p19ck4ldyh6xb6c0000gn/T//ccZqo17l.s 			page 90


 3353              	.LBB1567:
  78:singingbowl.h **** 
 3354              		.loc 13 78 41 view .LVU841
